Archive member included because of file (symbol)

C:\Users\m.paffi.ATESISTEMI\Documents\CCTA-OS\lpc17xx.cmsis.driver.library\Debug\liblpc17xx.cmsis.driver.library.a(lpc17xx_emac.o)
                              ./Source/lwIP/netif/ethernetif.o (EMAC_Init)
C:\Users\m.paffi.ATESISTEMI\Documents\CCTA-OS\lpc17xx.cmsis.driver.library\Debug\liblpc17xx.cmsis.driver.library.a(lpc17xx_gpio.o)
                              ./Source/main.o (GPIO_SetDir)
C:\Users\m.paffi.ATESISTEMI\Documents\CCTA-OS\lpc17xx.cmsis.driver.library\Debug\liblpc17xx.cmsis.driver.library.a(lpc17xx_i2c.o)
                              ./Source/FreeRTOS-Products/FreeRTOS-Plus-IO/Device/LPC17xx/FreeRTOS_lpc17xx_i2c.o (I2C_Stop)
C:\Users\m.paffi.ATESISTEMI\Documents\CCTA-OS\lpc17xx.cmsis.driver.library\Debug\liblpc17xx.cmsis.driver.library.a(lpc17xx_libcfg_default.o)
                              C:\Users\m.paffi.ATESISTEMI\Documents\CCTA-OS\lpc17xx.cmsis.driver.library\Debug\liblpc17xx.cmsis.driver.library.a(lpc17xx_i2c.o) (check_failed)
C:\Users\m.paffi.ATESISTEMI\Documents\CCTA-OS\lpc17xx.cmsis.driver.library\Debug\liblpc17xx.cmsis.driver.library.a(lpc17xx_pinsel.o)
                              ./Source/lwIP/netif/ethernetif.o (PINSEL_ConfigPin)
C:\Users\m.paffi.ATESISTEMI\Documents\CCTA-OS\lpc17xx.cmsis.driver.library\Debug\liblpc17xx.cmsis.driver.library.a(lpc17xx_ssp.o)
                              ./Source/FreeRTOS-Products/FreeRTOS-Plus-IO/Device/LPC17xx/FreeRTOS_lpc17xx_ssp.o (SSP_Init)
C:\Users\m.paffi.ATESISTEMI\Documents\CCTA-OS\lpc17xx.cmsis.driver.library\Debug\liblpc17xx.cmsis.driver.library.a(lpc17xx_uart.o)
                              ./Source/FreeRTOS-Products/FreeRTOS-Plus-IO/Device/LPC17xx/FreeRTOS_lpc17xx_uart.o (UART_Init)
C:\Users\m.paffi.ATESISTEMI\Documents\CCTA-OS\lpc17xx.cmsis.driver.library\Debug\liblpc17xx.cmsis.driver.library.a(lpc17xx_clkpwr.o)
                              C:\Users\m.paffi.ATESISTEMI\Documents\CCTA-OS\lpc17xx.cmsis.driver.library\Debug\liblpc17xx.cmsis.driver.library.a(lpc17xx_i2c.o) (CLKPWR_SetPCLKDiv)
C:\Users\m.paffi.ATESISTEMI\Documents\CCTA-OS\CMSISv2p00_LPC17xx\Debug\libCMSISv2p00_LPC17xx.a(system_LPC17xx.o)
                              ./Source/cr_startup_lpc176x.o (SystemInit)
c:/code_red/redsuitenxp_4.0.6_249/redsuite/tools/bin/../lib/gcc/arm-none-eabi/4.5.1/../../../../arm-none-eabi/lib/thumb2\libcr_nohost.a(_cr__main.o)
                              ./Source/cr_startup_lpc176x.o (__main)
c:/code_red/redsuitenxp_4.0.6_249/redsuite/tools/bin/../lib/gcc/arm-none-eabi/4.5.1/../../../../arm-none-eabi/lib/thumb2\libcr_c.a(fflush.o)
                              ./Source/lwIP/netif/etharp.o (fflush)
c:/code_red/redsuitenxp_4.0.6_249/redsuite/tools/bin/../lib/gcc/arm-none-eabi/4.5.1/../../../../arm-none-eabi/lib/thumb2\libcr_c.a(initio.o)
                              c:/code_red/redsuitenxp_4.0.6_249/redsuite/tools/bin/../lib/gcc/arm-none-eabi/4.5.1/../../../../arm-none-eabi/lib/thumb2\libcr_nohost.a(_cr__main.o) (_initio)
c:/code_red/redsuitenxp_4.0.6_249/redsuite/tools/bin/../lib/gcc/arm-none-eabi/4.5.1/../../../../arm-none-eabi/lib/thumb2\libcr_c.a(memcmp.o)
                              ./Source/FreeRTOS-Products/FreeRTOS/tasks.o (memcmp)
c:/code_red/redsuitenxp_4.0.6_249/redsuite/tools/bin/../lib/gcc/arm-none-eabi/4.5.1/../../../../arm-none-eabi/lib/thumb2\libcr_c.a(setvbuf.o)
                              c:/code_red/redsuitenxp_4.0.6_249/redsuite/tools/bin/../lib/gcc/arm-none-eabi/4.5.1/../../../../arm-none-eabi/lib/thumb2\libcr_c.a(initio.o) (setvbuf)
c:/code_red/redsuitenxp_4.0.6_249/redsuite/tools/bin/../lib/gcc/arm-none-eabi/4.5.1/../../../../arm-none-eabi/lib/thumb2\libcr_c.a(stdio.o)
                              c:/code_red/redsuitenxp_4.0.6_249/redsuite/tools/bin/../lib/gcc/arm-none-eabi/4.5.1/../../../../arm-none-eabi/lib/thumb2\libcr_c.a(fflush.o) (__Ciob)
c:/code_red/redsuitenxp_4.0.6_249/redsuite/tools/bin/../lib/gcc/arm-none-eabi/4.5.1/../../../../arm-none-eabi/lib/thumb2\libcr_c.a(stdlib.o)
                              ./Source/lwIP/netif/etharp.o (abort)
c:/code_red/redsuitenxp_4.0.6_249/redsuite/tools/bin/../lib/gcc/arm-none-eabi/4.5.1/../../../../arm-none-eabi/lib/thumb2\libcr_c.a(strcat.o)
                              ./Source/lwIP/lwIP_Apps/lwIP_Apps.o (strcat)
c:/code_red/redsuitenxp_4.0.6_249/redsuite/tools/bin/../lib/gcc/arm-none-eabi/4.5.1/../../../../arm-none-eabi/lib/thumb2\libcr_c.a(strchr.o)
                              ./Source/lwIP/lwIP_Apps/apps/httpserver_raw/httpd.o (strchr)
c:/code_red/redsuitenxp_4.0.6_249/redsuite/tools/bin/../lib/gcc/arm-none-eabi/4.5.1/../../../../arm-none-eabi/lib/thumb2\libcr_c.a(strcmp.o)
                              ./Source/lwIP/lwIP_Apps/apps/httpserver_raw/fs.o (strcmp)
c:/code_red/redsuitenxp_4.0.6_249/redsuite/tools/bin/../lib/gcc/arm-none-eabi/4.5.1/../../../../arm-none-eabi/lib/thumb2\libcr_c.a(strcpy.o)
                              ./Source/main.o (strcpy)
c:/code_red/redsuitenxp_4.0.6_249/redsuite/tools/bin/../lib/gcc/arm-none-eabi/4.5.1/../../../../arm-none-eabi/lib/thumb2\libcr_c.a(strlen.o)
                              ./Source/main.o (strlen)
c:/code_red/redsuitenxp_4.0.6_249/redsuite/tools/bin/../lib/gcc/arm-none-eabi/4.5.1/../../../../arm-none-eabi/lib/thumb2\libcr_c.a(strncmp.o)
                              ./Source/lwIP/lwIP_Apps/apps/httpserver_raw/httpd.o (strncmp)
c:/code_red/redsuitenxp_4.0.6_249/redsuite/tools/bin/../lib/gcc/arm-none-eabi/4.5.1/../../../../arm-none-eabi/lib/thumb2\libcr_c.a(strncpy.o)
                              ./Source/FreeRTOS-Products/FreeRTOS-Plus-CLI/FreeRTOS_CLI.o (strncpy)
c:/code_red/redsuitenxp_4.0.6_249/redsuite/tools/bin/../lib/gcc/arm-none-eabi/4.5.1/../../../../arm-none-eabi/lib/thumb2\libcr_c.a(strstr.o)
                              ./Source/lwIP/lwIP_Apps/apps/httpserver_raw/httpd.o (strstr)
c:/code_red/redsuitenxp_4.0.6_249/redsuite/tools/bin/../lib/gcc/arm-none-eabi/4.5.1/../../../../arm-none-eabi/lib/thumb2\libcr_c.a(memcpy.o)
                              ./Source/lwIP/netif/etharp.o (memcpy)
c:/code_red/redsuitenxp_4.0.6_249/redsuite/tools/bin/../lib/gcc/arm-none-eabi/4.5.1/../../../../arm-none-eabi/lib/thumb2\libcr_c.a(memset.o)
                              ./Source/main.o (memset)
c:/code_red/redsuitenxp_4.0.6_249/redsuite/tools/bin/../lib/gcc/arm-none-eabi/4.5.1/../../../../arm-none-eabi/lib/thumb2\libcr_c.a(__fillbuf.o)
                              c:/code_red/redsuitenxp_4.0.6_249/redsuite/tools/bin/../lib/gcc/arm-none-eabi/4.5.1/../../../../arm-none-eabi/lib/thumb2\libcr_c.a(stdio.o) (__filbuf)
c:/code_red/redsuitenxp_4.0.6_249/redsuite/tools/bin/../lib/gcc/arm-none-eabi/4.5.1/../../../../arm-none-eabi/lib/thumb2\libcr_c.a(_deferredlazyseek.o)
                              c:/code_red/redsuitenxp_4.0.6_249/redsuite/tools/bin/../lib/gcc/arm-none-eabi/4.5.1/../../../../arm-none-eabi/lib/thumb2\libcr_c.a(__fillbuf.o) (_deferredlazyseek)
c:/code_red/redsuitenxp_4.0.6_249/redsuite/tools/bin/../lib/gcc/arm-none-eabi/4.5.1/../../../../arm-none-eabi/lib/thumb2\libcr_c.a(_do_fflush.o)
                              c:/code_red/redsuitenxp_4.0.6_249/redsuite/tools/bin/../lib/gcc/arm-none-eabi/4.5.1/../../../../arm-none-eabi/lib/thumb2\libcr_c.a(fflush.o) (_do_fflush)
c:/code_red/redsuitenxp_4.0.6_249/redsuite/tools/bin/../lib/gcc/arm-none-eabi/4.5.1/../../../../arm-none-eabi/lib/thumb2\libcr_c.a(_fdopen.o)
                              c:/code_red/redsuitenxp_4.0.6_249/redsuite/tools/bin/../lib/gcc/arm-none-eabi/4.5.1/../../../../arm-none-eabi/lib/thumb2\libcr_c.a(initio.o) (_fdopen)
c:/code_red/redsuitenxp_4.0.6_249/redsuite/tools/bin/../lib/gcc/arm-none-eabi/4.5.1/../../../../arm-none-eabi/lib/thumb2\libcr_c.a(_fflush.o)
                              c:/code_red/redsuitenxp_4.0.6_249/redsuite/tools/bin/../lib/gcc/arm-none-eabi/4.5.1/../../../../arm-none-eabi/lib/thumb2\libcr_c.a(__fillbuf.o) (_fflush)
c:/code_red/redsuitenxp_4.0.6_249/redsuite/tools/bin/../lib/gcc/arm-none-eabi/4.5.1/../../../../arm-none-eabi/lib/thumb2\libcr_c.a(_writebuf.o)
                              c:/code_red/redsuitenxp_4.0.6_249/redsuite/tools/bin/../lib/gcc/arm-none-eabi/4.5.1/../../../../arm-none-eabi/lib/thumb2\libcr_c.a(_deferredlazyseek.o) (_Cwritebuf)
c:/code_red/redsuitenxp_4.0.6_249/redsuite/tools/bin/../lib/gcc/arm-none-eabi/4.5.1/../../../../arm-none-eabi/lib/thumb2\libcr_c.a(alloc.o)
                              c:/code_red/redsuitenxp_4.0.6_249/redsuite/tools/bin/../lib/gcc/arm-none-eabi/4.5.1/../../../../arm-none-eabi/lib/thumb2\libcr_c.a(initio.o) (_Csys_alloc)
c:/code_red/redsuitenxp_4.0.6_249/redsuite/tools/bin/../lib/gcc/arm-none-eabi/4.5.1/../../../../arm-none-eabi/lib/thumb2\libcr_c.a(fclose.o)
                              c:/code_red/redsuitenxp_4.0.6_249/redsuite/tools/bin/../lib/gcc/arm-none-eabi/4.5.1/../../../../arm-none-eabi/lib/thumb2\libcr_c.a(initio.o) (fclose)
c:/code_red/redsuitenxp_4.0.6_249/redsuite/tools/bin/../lib/gcc/arm-none-eabi/4.5.1/../../../../arm-none-eabi/lib/thumb2\libcr_c.a(fseek.o)
                              c:/code_red/redsuitenxp_4.0.6_249/redsuite/tools/bin/../lib/gcc/arm-none-eabi/4.5.1/../../../../arm-none-eabi/lib/thumb2\libcr_c.a(_deferredlazyseek.o) (fseek)
c:/code_red/redsuitenxp_4.0.6_249/redsuite/tools/bin/../lib/gcc/arm-none-eabi/4.5.1/../../../../arm-none-eabi/lib/thumb2\libcr_c.a(ftell.o)
                              c:/code_red/redsuitenxp_4.0.6_249/redsuite/tools/bin/../lib/gcc/arm-none-eabi/4.5.1/../../../../arm-none-eabi/lib/thumb2\libcr_c.a(fseek.o) (ftell)
c:/code_red/redsuitenxp_4.0.6_249/redsuite/tools/bin/../lib/gcc/arm-none-eabi/4.5.1/../../../../arm-none-eabi/lib/thumb2\libcr_c.a(raise.o)
                              c:/code_red/redsuitenxp_4.0.6_249/redsuite/tools/bin/../lib/gcc/arm-none-eabi/4.5.1/../../../../arm-none-eabi/lib/thumb2\libcr_c.a(stdlib.o) (raise)
c:/code_red/redsuitenxp_4.0.6_249/redsuite/tools/bin/../lib/gcc/arm-none-eabi/4.5.1/../../../../arm-none-eabi/lib/thumb2\libcr_c.a(remove.o)
                              c:/code_red/redsuitenxp_4.0.6_249/redsuite/tools/bin/../lib/gcc/arm-none-eabi/4.5.1/../../../../arm-none-eabi/lib/thumb2\libcr_c.a(fclose.o) (remove)
c:/code_red/redsuitenxp_4.0.6_249/redsuite/tools/bin/../lib/gcc/arm-none-eabi/4.5.1/../../../../arm-none-eabi/lib/thumb2\libcr_c.a(__init_alloc.o)
                              c:/code_red/redsuitenxp_4.0.6_249/redsuite/tools/bin/../lib/gcc/arm-none-eabi/4.5.1/../../../../arm-none-eabi/lib/thumb2\libcr_c.a(alloc.o) (__heaps)
c:/code_red/redsuitenxp_4.0.6_249/redsuite/tools/bin/../lib/gcc/arm-none-eabi/4.5.1/../../../../arm-none-eabi/lib/thumb2\libcr_c.a(errno.o)
                              c:/code_red/redsuitenxp_4.0.6_249/redsuite/tools/bin/../lib/gcc/arm-none-eabi/4.5.1/../../../../arm-none-eabi/lib/thumb2\libcr_c.a(ftell.o) (errno)
c:/code_red/redsuitenxp_4.0.6_249/redsuite/tools/bin/../lib/gcc/arm-none-eabi/4.5.1/thumb2\libcr_eabihelpers.a(division.o)
                              C:\Users\m.paffi.ATESISTEMI\Documents\CCTA-OS\CMSISv2p00_LPC17xx\Debug\libCMSISv2p00_LPC17xx.a(system_LPC17xx.o) (__aeabi_uldivmod)
c:/code_red/redsuitenxp_4.0.6_249/redsuite/tools/bin/../lib/gcc/arm-none-eabi/4.5.1/thumb2\libcr_eabihelpers.a(memcpy.o)
                              c:/code_red/redsuitenxp_4.0.6_249/redsuite/tools/bin/../lib/gcc/arm-none-eabi/4.5.1/../../../../arm-none-eabi/lib/thumb2\libcr_c.a(memcpy.o) (__aeabi_memcpy)
c:/code_red/redsuitenxp_4.0.6_249/redsuite/tools/bin/../lib/gcc/arm-none-eabi/4.5.1/../../../../arm-none-eabi/lib/thumb2\libcr_nohost.a(__sys_appexit.o)
                              c:/code_red/redsuitenxp_4.0.6_249/redsuite/tools/bin/../lib/gcc/arm-none-eabi/4.5.1/../../../../arm-none-eabi/lib/thumb2\libcr_c.a(stdlib.o) (__sys_appexit)
c:/code_red/redsuitenxp_4.0.6_249/redsuite/tools/bin/../lib/gcc/arm-none-eabi/4.5.1/../../../../arm-none-eabi/lib/thumb2\libcr_nohost.a(__sys_close.o)
                              c:/code_red/redsuitenxp_4.0.6_249/redsuite/tools/bin/../lib/gcc/arm-none-eabi/4.5.1/../../../../arm-none-eabi/lib/thumb2\libcr_c.a(fclose.o) (__sys_close)
c:/code_red/redsuitenxp_4.0.6_249/redsuite/tools/bin/../lib/gcc/arm-none-eabi/4.5.1/../../../../arm-none-eabi/lib/thumb2\libcr_nohost.a(__sys_flen.o)
                              c:/code_red/redsuitenxp_4.0.6_249/redsuite/tools/bin/../lib/gcc/arm-none-eabi/4.5.1/../../../../arm-none-eabi/lib/thumb2\libcr_c.a(_writebuf.o) (__sys_flen)
c:/code_red/redsuitenxp_4.0.6_249/redsuite/tools/bin/../lib/gcc/arm-none-eabi/4.5.1/../../../../arm-none-eabi/lib/thumb2\libcr_nohost.a(__sys_istty.o)
                              c:/code_red/redsuitenxp_4.0.6_249/redsuite/tools/bin/../lib/gcc/arm-none-eabi/4.5.1/../../../../arm-none-eabi/lib/thumb2\libcr_c.a(_deferredlazyseek.o) (__sys_istty)
c:/code_red/redsuitenxp_4.0.6_249/redsuite/tools/bin/../lib/gcc/arm-none-eabi/4.5.1/../../../../arm-none-eabi/lib/thumb2\libcr_nohost.a(__sys_read.o)
                              c:/code_red/redsuitenxp_4.0.6_249/redsuite/tools/bin/../lib/gcc/arm-none-eabi/4.5.1/../../../../arm-none-eabi/lib/thumb2\libcr_c.a(__fillbuf.o) (__sys_read)
c:/code_red/redsuitenxp_4.0.6_249/redsuite/tools/bin/../lib/gcc/arm-none-eabi/4.5.1/../../../../arm-none-eabi/lib/thumb2\libcr_nohost.a(__sys_readc.o)
                              c:/code_red/redsuitenxp_4.0.6_249/redsuite/tools/bin/../lib/gcc/arm-none-eabi/4.5.1/../../../../arm-none-eabi/lib/thumb2\libcr_c.a(__fillbuf.o) (__sys_readc)
c:/code_red/redsuitenxp_4.0.6_249/redsuite/tools/bin/../lib/gcc/arm-none-eabi/4.5.1/../../../../arm-none-eabi/lib/thumb2\libcr_nohost.a(__sys_remove.o)
                              c:/code_red/redsuitenxp_4.0.6_249/redsuite/tools/bin/../lib/gcc/arm-none-eabi/4.5.1/../../../../arm-none-eabi/lib/thumb2\libcr_c.a(remove.o) (__sys_remove)
c:/code_red/redsuitenxp_4.0.6_249/redsuite/tools/bin/../lib/gcc/arm-none-eabi/4.5.1/../../../../arm-none-eabi/lib/thumb2\libcr_nohost.a(__sys_rename.o)
                              c:/code_red/redsuitenxp_4.0.6_249/redsuite/tools/bin/../lib/gcc/arm-none-eabi/4.5.1/../../../../arm-none-eabi/lib/thumb2\libcr_c.a(remove.o) (__sys_rename)
c:/code_red/redsuitenxp_4.0.6_249/redsuite/tools/bin/../lib/gcc/arm-none-eabi/4.5.1/../../../../arm-none-eabi/lib/thumb2\libcr_nohost.a(__sys_seek.o)
                              c:/code_red/redsuitenxp_4.0.6_249/redsuite/tools/bin/../lib/gcc/arm-none-eabi/4.5.1/../../../../arm-none-eabi/lib/thumb2\libcr_c.a(__fillbuf.o) (__sys_seek)
c:/code_red/redsuitenxp_4.0.6_249/redsuite/tools/bin/../lib/gcc/arm-none-eabi/4.5.1/../../../../arm-none-eabi/lib/thumb2\libcr_nohost.a(__sys_tmpnam.o)
                              c:/code_red/redsuitenxp_4.0.6_249/redsuite/tools/bin/../lib/gcc/arm-none-eabi/4.5.1/../../../../arm-none-eabi/lib/thumb2\libcr_c.a(fclose.o) (__sys_tmpnam)
c:/code_red/redsuitenxp_4.0.6_249/redsuite/tools/bin/../lib/gcc/arm-none-eabi/4.5.1/../../../../arm-none-eabi/lib/thumb2\libcr_nohost.a(__sys_write.o)
                              c:/code_red/redsuitenxp_4.0.6_249/redsuite/tools/bin/../lib/gcc/arm-none-eabi/4.5.1/../../../../arm-none-eabi/lib/thumb2\libcr_c.a(_writebuf.o) (__sys_write)
c:/code_red/redsuitenxp_4.0.6_249/redsuite/tools/bin/../lib/gcc/arm-none-eabi/4.5.1/../../../../arm-none-eabi/lib/thumb2\libcr_nohost.a(_cr_sbrk.o)
                              c:/code_red/redsuitenxp_4.0.6_249/redsuite/tools/bin/../lib/gcc/arm-none-eabi/4.5.1/../../../../arm-none-eabi/lib/thumb2\libcr_c.a(alloc.o) (_sbrk)
c:/code_red/redsuitenxp_4.0.6_249/redsuite/tools/bin/../lib/gcc/arm-none-eabi/4.5.1/../../../../arm-none-eabi/lib/thumb2\libcr_nohost.a(_cr_check_heap.o)
                              c:/code_red/redsuitenxp_4.0.6_249/redsuite/tools/bin/../lib/gcc/arm-none-eabi/4.5.1/../../../../arm-none-eabi/lib/thumb2\libcr_nohost.a(_cr_sbrk.o) (__check_heap_overflow)

Allocating common symbols
Common symbol       size              file

current_iphdr_src   0x4               ./Source/lwIP/core/ipv4/ip.o
netif_list          0x4               ./Source/lwIP/core/netif.o
tcp_active_pcbs     0x4               ./Source/lwIP/core/tcp.o
_extra              0x4               c:/code_red/redsuitenxp_4.0.6_249/redsuite/tools/bin/../lib/gcc/arm-none-eabi/4.5.1/../../../../arm-none-eabi/lib/thumb2\libcr_c.a(initio.o)
current_netif       0x4               ./Source/lwIP/core/ipv4/ip.o
tcp_ticks           0x4               ./Source/lwIP/core/tcp.o
tcp_listen_pcbs     0x4               ./Source/lwIP/core/tcp.o
current_iphdr_dest  0x4               ./Source/lwIP/core/ipv4/ip.o
xQueueRegistry      0x50              ./Source/FreeRTOS-Products/FreeRTOS/queue.o
tcp_tmp_pcb         0x4               ./Source/lwIP/core/tcp.o
_exitvector         0x84              c:/code_red/redsuitenxp_4.0.6_249/redsuite/tools/bin/../lib/gcc/arm-none-eabi/4.5.1/../../../../arm-none-eabi/lib/thumb2\libcr_c.a(stdlib.o)
tcp_input_pcb       0x4               ./Source/lwIP/core/tcp_in.o
current_header      0x4               ./Source/lwIP/core/ipv4/ip.o
tcp_bound_pcbs      0x4               ./Source/lwIP/core/tcp.o
fs_memory           0xf0              ./Source/lwIP/lwIP_Apps/apps/httpserver_raw/fs.o
_number_of_exit_functions
                    0x4               c:/code_red/redsuitenxp_4.0.6_249/redsuite/tools/bin/../lib/gcc/arm-none-eabi/4.5.1/../../../../arm-none-eabi/lib/thumb2\libcr_c.a(stdlib.o)
tcp_tw_pcbs         0x4               ./Source/lwIP/core/tcp.o
netif_default       0x4               ./Source/lwIP/core/netif.o
__heaps             0x4               c:/code_red/redsuitenxp_4.0.6_249/redsuite/tools/bin/../lib/gcc/arm-none-eabi/4.5.1/../../../../arm-none-eabi/lib/thumb2\libcr_c.a(__init_alloc.o)
__end_of_heap       0x4               c:/code_red/redsuitenxp_4.0.6_249/redsuite/tools/bin/../lib/gcc/arm-none-eabi/4.5.1/../../../../arm-none-eabi/lib/thumb2\libcr_c.a(__init_alloc.o)
ram_heap            0x1414            ./Source/lwIP/core/mem.o
__Ciob              0x140             c:/code_red/redsuitenxp_4.0.6_249/redsuite/tools/bin/../lib/gcc/arm-none-eabi/4.5.1/../../../../arm-none-eabi/lib/thumb2\libcr_c.a(stdio.o)

Discarded input sections

 .text          0x00000000        0x0 ./Source/cr_startup_lpc176x.o
 .data          0x00000000        0x0 ./Source/cr_startup_lpc176x.o
 .bss           0x00000000        0x0 ./Source/cr_startup_lpc176x.o
 .text          0x00000000        0x0 ./Source/main.o
 .data          0x00000000        0x0 ./Source/main.o
 .bss           0x00000000        0x0 ./Source/main.o
 .text          0x00000000        0x0 ./Source/printf-stdarg.o
 .data          0x00000000        0x0 ./Source/printf-stdarg.o
 .bss           0x00000000        0x0 ./Source/printf-stdarg.o
 .text.snprintf
                0x00000000       0x1e ./Source/printf-stdarg.o
 .text.write    0x00000000        0x4 ./Source/printf-stdarg.o
 .text          0x00000000        0x0 ./Source/lwIP/netif/etharp.o
 .data          0x00000000        0x0 ./Source/lwIP/netif/etharp.o
 .bss           0x00000000        0x0 ./Source/lwIP/netif/etharp.o
 .text.etharp_find_addr
                0x00000000       0x60 ./Source/lwIP/netif/etharp.o
 .text          0x00000000        0x0 ./Source/lwIP/netif/ethernetif.o
 .data          0x00000000        0x0 ./Source/lwIP/netif/ethernetif.o
 .bss           0x00000000        0x0 ./Source/lwIP/netif/ethernetif.o
 .text          0x00000000        0x0 ./Source/lwIP/netif/sys_arch.o
 .data          0x00000000        0x0 ./Source/lwIP/netif/sys_arch.o
 .bss           0x00000000        0x0 ./Source/lwIP/netif/sys_arch.o
 .text.sys_mutex_free
                0x00000000        0x6 ./Source/lwIP/netif/sys_arch.o
 .text.sys_now  0x00000000        0x4 ./Source/lwIP/netif/sys_arch.o
 .text.sys_assert
                0x00000000        0x2 ./Source/lwIP/netif/sys_arch.o
 .text          0x00000000        0x0 ./Source/lwIP/lwIP_Apps/lwIP_Apps.o
 .data          0x00000000        0x0 ./Source/lwIP/lwIP_Apps/lwIP_Apps.o
 .bss           0x00000000        0x0 ./Source/lwIP/lwIP_Apps/lwIP_Apps.o
 .text          0x00000000        0x0 ./Source/lwIP/lwIP_Apps/apps/httpserver_raw/fs.o
 .data          0x00000000        0x0 ./Source/lwIP/lwIP_Apps/apps/httpserver_raw/fs.o
 .bss           0x00000000        0x0 ./Source/lwIP/lwIP_Apps/apps/httpserver_raw/fs.o
 .text          0x00000000        0x0 ./Source/lwIP/lwIP_Apps/apps/httpserver_raw/httpd.o
 .data          0x00000000        0x0 ./Source/lwIP/lwIP_Apps/apps/httpserver_raw/httpd.o
 .bss           0x00000000        0x0 ./Source/lwIP/lwIP_Apps/apps/httpserver_raw/httpd.o
 .rodata.g_pcTagLeadOut
                0x00000000        0x4 ./Source/lwIP/lwIP_Apps/apps/httpserver_raw/httpd.o
 .rodata.g_pcTagLeadIn
                0x00000000        0x4 ./Source/lwIP/lwIP_Apps/apps/httpserver_raw/httpd.o
 .text          0x00000000        0x0 ./Source/lwIP/lwIP_Apps/apps/BasicSocketCommandServer/BasicSocketCommandServer.o
 .data          0x00000000        0x0 ./Source/lwIP/lwIP_Apps/apps/BasicSocketCommandServer/BasicSocketCommandServer.o
 .bss           0x00000000        0x0 ./Source/lwIP/lwIP_Apps/apps/BasicSocketCommandServer/BasicSocketCommandServer.o
 .text          0x00000000        0x0 ./Source/lwIP/core/def.o
 .data          0x00000000        0x0 ./Source/lwIP/core/def.o
 .bss           0x00000000        0x0 ./Source/lwIP/core/def.o
 .text          0x00000000        0x0 ./Source/lwIP/core/dhcp.o
 .data          0x00000000        0x0 ./Source/lwIP/core/dhcp.o
 .bss           0x00000000        0x0 ./Source/lwIP/core/dhcp.o
 .text          0x00000000        0x0 ./Source/lwIP/core/dns.o
 .data          0x00000000        0x0 ./Source/lwIP/core/dns.o
 .bss           0x00000000        0x0 ./Source/lwIP/core/dns.o
 .text          0x00000000        0x0 ./Source/lwIP/core/init.o
 .data          0x00000000        0x0 ./Source/lwIP/core/init.o
 .bss           0x00000000        0x0 ./Source/lwIP/core/init.o
 .text          0x00000000        0x0 ./Source/lwIP/core/lwip_timers.o
 .data          0x00000000        0x0 ./Source/lwIP/core/lwip_timers.o
 .bss           0x00000000        0x0 ./Source/lwIP/core/lwip_timers.o
 .text          0x00000000        0x0 ./Source/lwIP/core/mem.o
 .data          0x00000000        0x0 ./Source/lwIP/core/mem.o
 .bss           0x00000000        0x0 ./Source/lwIP/core/mem.o
 .text.mem_calloc
                0x00000000       0x1c ./Source/lwIP/core/mem.o
 .text          0x00000000        0x0 ./Source/lwIP/core/memp.o
 .data          0x00000000        0x0 ./Source/lwIP/core/memp.o
 .bss           0x00000000        0x0 ./Source/lwIP/core/memp.o
 .text          0x00000000        0x0 ./Source/lwIP/core/netif.o
 .data          0x00000000        0x0 ./Source/lwIP/core/netif.o
 .bss           0x00000000        0x0 ./Source/lwIP/core/netif.o
 .text.netif_find
                0x00000000       0x3c ./Source/lwIP/core/netif.o
 .text.netif_set_down
                0x00000000       0x14 ./Source/lwIP/core/netif.o
 .text.netif_remove
                0x00000000       0x54 ./Source/lwIP/core/netif.o
 .text.netif_set_link_up
                0x00000000       0x26 ./Source/lwIP/core/netif.o
 .text.netif_set_link_down
                0x00000000       0x14 ./Source/lwIP/core/netif.o
 .text          0x00000000        0x0 ./Source/lwIP/core/pbuf.o
 .data          0x00000000        0x0 ./Source/lwIP/core/pbuf.o
 .bss           0x00000000        0x0 ./Source/lwIP/core/pbuf.o
 .text.pbuf_chain
                0x00000000       0x12 ./Source/lwIP/core/pbuf.o
 .text.pbuf_dechain
                0x00000000       0x80 ./Source/lwIP/core/pbuf.o
 .text.pbuf_take
                0x00000000       0xc8 ./Source/lwIP/core/pbuf.o
 .text.pbuf_coalesce
                0x00000000       0x50 ./Source/lwIP/core/pbuf.o
 .text.pbuf_get_at
                0x00000000       0x16 ./Source/lwIP/core/pbuf.o
 .text.pbuf_memcmp
                0x00000000       0x56 ./Source/lwIP/core/pbuf.o
 .text.pbuf_memfind
                0x00000000       0x3e ./Source/lwIP/core/pbuf.o
 .text.pbuf_strstr
                0x00000000       0x40 ./Source/lwIP/core/pbuf.o
 .text          0x00000000        0x0 ./Source/lwIP/core/raw.o
 .data          0x00000000        0x0 ./Source/lwIP/core/raw.o
 .bss           0x00000000        0x0 ./Source/lwIP/core/raw.o
 .text          0x00000000        0x0 ./Source/lwIP/core/stats.o
 .data          0x00000000        0x0 ./Source/lwIP/core/stats.o
 .bss           0x00000000        0x0 ./Source/lwIP/core/stats.o
 .text          0x00000000        0x0 ./Source/lwIP/core/sys.o
 .data          0x00000000        0x0 ./Source/lwIP/core/sys.o
 .bss           0x00000000        0x0 ./Source/lwIP/core/sys.o
 .text.sys_msleep
                0x00000000       0x20 ./Source/lwIP/core/sys.o
 .text          0x00000000        0x0 ./Source/lwIP/core/tcp.o
 .data          0x00000000        0x0 ./Source/lwIP/core/tcp.o
 .bss           0x00000000        0x0 ./Source/lwIP/core/tcp.o
 .text.tcp_connect
                0x00000000       0xfc ./Source/lwIP/core/tcp.o
 .text.tcp_debug_state_str
                0x00000000        0xc ./Source/lwIP/core/tcp.o
 .rodata.tcp_state_str
                0x00000000       0x2c ./Source/lwIP/core/tcp.o
 .text          0x00000000        0x0 ./Source/lwIP/core/tcp_in.o
 .data          0x00000000        0x0 ./Source/lwIP/core/tcp_in.o
 .bss           0x00000000        0x0 ./Source/lwIP/core/tcp_in.o
 .text          0x00000000        0x0 ./Source/lwIP/core/tcp_out.o
 .data          0x00000000        0x0 ./Source/lwIP/core/tcp_out.o
 .bss           0x00000000        0x0 ./Source/lwIP/core/tcp_out.o
 .text          0x00000000        0x0 ./Source/lwIP/core/udp.o
 .data          0x00000000        0x0 ./Source/lwIP/core/udp.o
 .bss           0x00000000        0x0 ./Source/lwIP/core/udp.o
 .text          0x00000000        0x0 ./Source/lwIP/core/ipv4/autoip.o
 .data          0x00000000        0x0 ./Source/lwIP/core/ipv4/autoip.o
 .bss           0x00000000        0x0 ./Source/lwIP/core/ipv4/autoip.o
 .text          0x00000000        0x0 ./Source/lwIP/core/ipv4/icmp.o
 .data          0x00000000        0x0 ./Source/lwIP/core/ipv4/icmp.o
 .bss           0x00000000        0x0 ./Source/lwIP/core/ipv4/icmp.o
 .text          0x00000000        0x0 ./Source/lwIP/core/ipv4/igmp.o
 .data          0x00000000        0x0 ./Source/lwIP/core/ipv4/igmp.o
 .bss           0x00000000        0x0 ./Source/lwIP/core/ipv4/igmp.o
 .text          0x00000000        0x0 ./Source/lwIP/core/ipv4/inet.o
 .data          0x00000000        0x0 ./Source/lwIP/core/ipv4/inet.o
 .bss           0x00000000        0x0 ./Source/lwIP/core/ipv4/inet.o
 .text          0x00000000        0x0 ./Source/lwIP/core/ipv4/inet_chksum.o
 .data          0x00000000        0x0 ./Source/lwIP/core/ipv4/inet_chksum.o
 .bss           0x00000000        0x0 ./Source/lwIP/core/ipv4/inet_chksum.o
 .text.inet_chksum_pseudo_partial
                0x00000000       0xd4 ./Source/lwIP/core/ipv4/inet_chksum.o
 .rodata.str1.1
                0x00000000       0x59 ./Source/lwIP/core/ipv4/inet_chksum.o
 .text          0x00000000        0x0 ./Source/lwIP/core/ipv4/ip.o
 .data          0x00000000        0x0 ./Source/lwIP/core/ipv4/ip.o
 .bss           0x00000000        0x0 ./Source/lwIP/core/ipv4/ip.o
 .text          0x00000000        0x0 ./Source/lwIP/core/ipv4/ip_addr.o
 .data          0x00000000        0x0 ./Source/lwIP/core/ipv4/ip_addr.o
 .bss           0x00000000        0x0 ./Source/lwIP/core/ipv4/ip_addr.o
 .text.ip4_addr_netmask_valid
                0x00000000       0x2c ./Source/lwIP/core/ipv4/ip_addr.o
 .text.ipaddr_aton
                0x00000000      0x134 ./Source/lwIP/core/ipv4/ip_addr.o
 .text.ipaddr_addr
                0x00000000       0x14 ./Source/lwIP/core/ipv4/ip_addr.o
 .text.ipaddr_ntoa_r
                0x00000000       0x82 ./Source/lwIP/core/ipv4/ip_addr.o
 .text.ipaddr_ntoa
                0x00000000        0xc ./Source/lwIP/core/ipv4/ip_addr.o
 .rodata.ip_addr_broadcast
                0x00000000        0x4 ./Source/lwIP/core/ipv4/ip_addr.o
 .rodata.str1.1
                0x00000000       0x55 ./Source/lwIP/core/ipv4/ip_addr.o
 .bss.str.1714  0x00000000       0x10 ./Source/lwIP/core/ipv4/ip_addr.o
 .text          0x00000000        0x0 ./Source/lwIP/core/ipv4/ip_frag.o
 .data          0x00000000        0x0 ./Source/lwIP/core/ipv4/ip_frag.o
 .bss           0x00000000        0x0 ./Source/lwIP/core/ipv4/ip_frag.o
 .text          0x00000000        0x0 ./Source/lwIP/api/api_lib.o
 .data          0x00000000        0x0 ./Source/lwIP/api/api_lib.o
 .bss           0x00000000        0x0 ./Source/lwIP/api/api_lib.o
 .text.netconn_close_shutdown
                0x00000000       0x5c ./Source/lwIP/api/api_lib.o
 .text.netconn_connect
                0x00000000       0x5c ./Source/lwIP/api/api_lib.o
 .text.netconn_disconnect
                0x00000000       0x58 ./Source/lwIP/api/api_lib.o
 .text.netconn_send
                0x00000000       0x5c ./Source/lwIP/api/api_lib.o
 .text.netconn_sendto
                0x00000000       0x14 ./Source/lwIP/api/api_lib.o
 .text.netconn_close
                0x00000000        0x6 ./Source/lwIP/api/api_lib.o
 .text.netconn_shutdown
                0x00000000       0x16 ./Source/lwIP/api/api_lib.o
 .text          0x00000000        0x0 ./Source/lwIP/api/api_msg.o
 .data          0x00000000        0x0 ./Source/lwIP/api/api_msg.o
 .bss           0x00000000        0x0 ./Source/lwIP/api/api_msg.o
 .text.do_connected
                0x00000000       0xc8 ./Source/lwIP/api/api_msg.o
 .text.do_connect
                0x00000000       0x94 ./Source/lwIP/api/api_msg.o
 .text.do_disconnect
                0x00000000        0xc ./Source/lwIP/api/api_msg.o
 .text.do_send  0x00000000       0x18 ./Source/lwIP/api/api_msg.o
 .text.do_close
                0x00000000       0xa8 ./Source/lwIP/api/api_msg.o
 .text          0x00000000        0x0 ./Source/lwIP/api/err.o
 .data          0x00000000        0x0 ./Source/lwIP/api/err.o
 .bss           0x00000000        0x0 ./Source/lwIP/api/err.o
 .text          0x00000000        0x0 ./Source/lwIP/api/netbuf.o
 .data          0x00000000        0x0 ./Source/lwIP/api/netbuf.o
 .bss           0x00000000        0x0 ./Source/lwIP/api/netbuf.o
 .text.netbuf_new
                0x00000000       0x16 ./Source/lwIP/api/netbuf.o
 .text.netbuf_alloc
                0x00000000       0x68 ./Source/lwIP/api/netbuf.o
 .text.netbuf_free
                0x00000000       0x38 ./Source/lwIP/api/netbuf.o
 .text.netbuf_ref
                0x00000000       0x58 ./Source/lwIP/api/netbuf.o
 .text.netbuf_chain
                0x00000000       0x58 ./Source/lwIP/api/netbuf.o
 .text.netbuf_data
                0x00000000       0x70 ./Source/lwIP/api/netbuf.o
 .text.netbuf_next
                0x00000000       0x40 ./Source/lwIP/api/netbuf.o
 .text.netbuf_first
                0x00000000       0x30 ./Source/lwIP/api/netbuf.o
 .rodata.str1.1
                0x00000000      0x136 ./Source/lwIP/api/netbuf.o
 .text          0x00000000        0x0 ./Source/lwIP/api/netdb.o
 .data          0x00000000        0x0 ./Source/lwIP/api/netdb.o
 .bss           0x00000000        0x0 ./Source/lwIP/api/netdb.o
 .text          0x00000000        0x0 ./Source/lwIP/api/netifapi.o
 .data          0x00000000        0x0 ./Source/lwIP/api/netifapi.o
 .bss           0x00000000        0x0 ./Source/lwIP/api/netifapi.o
 .text          0x00000000        0x0 ./Source/lwIP/api/sockets.o
 .data          0x00000000        0x0 ./Source/lwIP/api/sockets.o
 .bss           0x00000000        0x0 ./Source/lwIP/api/sockets.o
 .text.tryget_socket
                0x00000000       0x20 ./Source/lwIP/api/sockets.o
 .text.lwip_setsockopt_internal
                0x00000000      0x130 ./Source/lwIP/api/sockets.o
 .text.lwip_getsockopt_internal
                0x00000000      0x16c ./Source/lwIP/api/sockets.o
 .text.lwip_selscan
                0x00000000      0x14a ./Source/lwIP/api/sockets.o
 .text.lwip_getaddrname
                0x00000000       0x6a ./Source/lwIP/api/sockets.o
 .text.lwip_connect
                0x00000000       0x84 ./Source/lwIP/api/sockets.o
 .text.lwip_read
                0x00000000        0xe ./Source/lwIP/api/sockets.o
 .text.lwip_sendto
                0x00000000      0x100 ./Source/lwIP/api/sockets.o
 .text.lwip_write
                0x00000000        0x6 ./Source/lwIP/api/sockets.o
 .text.lwip_select
                0x00000000      0x344 ./Source/lwIP/api/sockets.o
 .text.lwip_shutdown
                0x00000000       0x6c ./Source/lwIP/api/sockets.o
 .text.lwip_getpeername
                0x00000000        0x6 ./Source/lwIP/api/sockets.o
 .text.lwip_getsockname
                0x00000000        0x6 ./Source/lwIP/api/sockets.o
 .text.lwip_getsockopt
                0x00000000       0xd8 ./Source/lwIP/api/sockets.o
 .text.lwip_setsockopt
                0x00000000       0xc0 ./Source/lwIP/api/sockets.o
 .text.lwip_ioctl
                0x00000000       0x90 ./Source/lwIP/api/sockets.o
 .text.lwip_fcntl
                0x00000000       0x56 ./Source/lwIP/api/sockets.o
 .text          0x00000000        0x0 ./Source/lwIP/api/tcpip.o
 .data          0x00000000        0x0 ./Source/lwIP/api/tcpip.o
 .bss           0x00000000        0x0 ./Source/lwIP/api/tcpip.o
 .text.pbuf_free_int
                0x00000000        0x4 ./Source/lwIP/api/tcpip.o
 .text.tcpip_callback_with_block
                0x00000000       0x58 ./Source/lwIP/api/tcpip.o
 .text.tcpip_timeout
                0x00000000       0x3c ./Source/lwIP/api/tcpip.o
 .text.tcpip_untimeout
                0x00000000       0x38 ./Source/lwIP/api/tcpip.o
 .text.pbuf_free_callback
                0x00000000       0x10 ./Source/lwIP/api/tcpip.o
 .text.mem_free_callback
                0x00000000       0x10 ./Source/lwIP/api/tcpip.o
 .text          0x00000000        0x0 ./Source/MemMang/heap_2.o
 .data          0x00000000        0x0 ./Source/MemMang/heap_2.o
 .bss           0x00000000        0x0 ./Source/MemMang/heap_2.o
 .text.xPortGetFreeHeapSize
                0x00000000        0xc ./Source/MemMang/heap_2.o
 .text.vPortInitialiseBlocks
                0x00000000        0x2 ./Source/MemMang/heap_2.o
 .text          0x00000000        0x0 ./Source/FreeRTOS-Products/FreeRTOS-Plus-IO/Device/LPC17xx/FreeRTOS_lpc17xx_DriverInterface.o
 .data          0x00000000        0x0 ./Source/FreeRTOS-Products/FreeRTOS-Plus-IO/Device/LPC17xx/FreeRTOS_lpc17xx_DriverInterface.o
 .bss           0x00000000        0x0 ./Source/FreeRTOS-Products/FreeRTOS-Plus-IO/Device/LPC17xx/FreeRTOS_lpc17xx_DriverInterface.o
 .text.vFreeRTOS_lpc17xx_PopulateFunctionPointers
                0x00000000       0x20 ./Source/FreeRTOS-Products/FreeRTOS-Plus-IO/Device/LPC17xx/FreeRTOS_lpc17xx_DriverInterface.o
 .text          0x00000000        0x0 ./Source/FreeRTOS-Products/FreeRTOS-Plus-IO/Device/LPC17xx/FreeRTOS_lpc17xx_i2c.o
 .data          0x00000000        0x0 ./Source/FreeRTOS-Products/FreeRTOS-Plus-IO/Device/LPC17xx/FreeRTOS_lpc17xx_i2c.o
 .bss           0x00000000        0x0 ./Source/FreeRTOS-Products/FreeRTOS-Plus-IO/Device/LPC17xx/FreeRTOS_lpc17xx_i2c.o
 .text.NVIC_SetPriority
                0x00000000       0x2c ./Source/FreeRTOS-Products/FreeRTOS-Plus-IO/Device/LPC17xx/FreeRTOS_lpc17xx_i2c.o
 .text.FreeRTOS_I2C_write
                0x00000000       0x4c ./Source/FreeRTOS-Products/FreeRTOS-Plus-IO/Device/LPC17xx/FreeRTOS_lpc17xx_i2c.o
 .text.FreeRTOS_I2C_read
                0x00000000       0x48 ./Source/FreeRTOS-Products/FreeRTOS-Plus-IO/Device/LPC17xx/FreeRTOS_lpc17xx_i2c.o
 .text.FreeRTOS_I2C_ioctl
                0x00000000       0xdc ./Source/FreeRTOS-Products/FreeRTOS-Plus-IO/Device/LPC17xx/FreeRTOS_lpc17xx_i2c.o
 .text.FreeRTOS_I2C_open
                0x00000000       0xf0 ./Source/FreeRTOS-Products/FreeRTOS-Plus-IO/Device/LPC17xx/FreeRTOS_lpc17xx_i2c.o
 .text.Unused_I2C2_IRQHandler
                0x00000000      0x174 ./Source/FreeRTOS-Products/FreeRTOS-Plus-IO/Device/LPC17xx/FreeRTOS_lpc17xx_i2c.o
 .bss.xBytesOutstanding
                0x00000000        0xc ./Source/FreeRTOS-Products/FreeRTOS-Plus-IO/Device/LPC17xx/FreeRTOS_lpc17xx_i2c.o
 .bss.ucSlaveAddresses
                0x00000000        0x3 ./Source/FreeRTOS-Products/FreeRTOS-Plus-IO/Device/LPC17xx/FreeRTOS_lpc17xx_i2c.o
 .bss.xDataDirection
                0x00000000        0x3 ./Source/FreeRTOS-Products/FreeRTOS-Plus-IO/Device/LPC17xx/FreeRTOS_lpc17xx_i2c.o
 .bss.pxRxTransferControlStructs
                0x00000000        0xc ./Source/FreeRTOS-Products/FreeRTOS-Plus-IO/Device/LPC17xx/FreeRTOS_lpc17xx_i2c.o
 .bss.pxTxTransferControlStructs
                0x00000000        0xc ./Source/FreeRTOS-Products/FreeRTOS-Plus-IO/Device/LPC17xx/FreeRTOS_lpc17xx_i2c.o
 .rodata.xIRQ   0x00000000        0x3 ./Source/FreeRTOS-Products/FreeRTOS-Plus-IO/Device/LPC17xx/FreeRTOS_lpc17xx_i2c.o
 .text          0x00000000        0x0 ./Source/FreeRTOS-Products/FreeRTOS-Plus-IO/Device/LPC17xx/FreeRTOS_lpc17xx_ssp.o
 .data          0x00000000        0x0 ./Source/FreeRTOS-Products/FreeRTOS-Plus-IO/Device/LPC17xx/FreeRTOS_lpc17xx_ssp.o
 .bss           0x00000000        0x0 ./Source/FreeRTOS-Products/FreeRTOS-Plus-IO/Device/LPC17xx/FreeRTOS_lpc17xx_ssp.o
 .text.NVIC_SetPriority
                0x00000000       0x2c ./Source/FreeRTOS-Products/FreeRTOS-Plus-IO/Device/LPC17xx/FreeRTOS_lpc17xx_ssp.o
 .text.FreeRTOS_SSP_ioctl
                0x00000000      0x168 ./Source/FreeRTOS-Products/FreeRTOS-Plus-IO/Device/LPC17xx/FreeRTOS_lpc17xx_ssp.o
 .text.FreeRTOS_SSP_write
                0x00000000      0x150 ./Source/FreeRTOS-Products/FreeRTOS-Plus-IO/Device/LPC17xx/FreeRTOS_lpc17xx_ssp.o
 .text.FreeRTOS_SSP_read
                0x00000000      0x138 ./Source/FreeRTOS-Products/FreeRTOS-Plus-IO/Device/LPC17xx/FreeRTOS_lpc17xx_ssp.o
 .text.FreeRTOS_SSP_open
                0x00000000      0x10c ./Source/FreeRTOS-Products/FreeRTOS-Plus-IO/Device/LPC17xx/FreeRTOS_lpc17xx_ssp.o
 .bss.xSSPConfigurations
                0x00000000       0x30 ./Source/FreeRTOS-Products/FreeRTOS-Plus-IO/Device/LPC17xx/FreeRTOS_lpc17xx_ssp.o
 .rodata.xIRQ   0x00000000        0x2 ./Source/FreeRTOS-Products/FreeRTOS-Plus-IO/Device/LPC17xx/FreeRTOS_lpc17xx_ssp.o
 .text          0x00000000        0x0 ./Source/FreeRTOS-Products/FreeRTOS-Plus-IO/Device/LPC17xx/FreeRTOS_lpc17xx_uart.o
 .data          0x00000000        0x0 ./Source/FreeRTOS-Products/FreeRTOS-Plus-IO/Device/LPC17xx/FreeRTOS_lpc17xx_uart.o
 .bss           0x00000000        0x0 ./Source/FreeRTOS-Products/FreeRTOS-Plus-IO/Device/LPC17xx/FreeRTOS_lpc17xx_uart.o
 .text.NVIC_SetPriority
                0x00000000       0x2c ./Source/FreeRTOS-Products/FreeRTOS-Plus-IO/Device/LPC17xx/FreeRTOS_lpc17xx_uart.o
 .text.FreeRTOS_UART_ioctl
                0x00000000       0xe4 ./Source/FreeRTOS-Products/FreeRTOS-Plus-IO/Device/LPC17xx/FreeRTOS_lpc17xx_uart.o
 .text.FreeRTOS_UART_read
                0x00000000       0x3c ./Source/FreeRTOS-Products/FreeRTOS-Plus-IO/Device/LPC17xx/FreeRTOS_lpc17xx_uart.o
 .text.FreeRTOS_UART_write
                0x00000000       0x48 ./Source/FreeRTOS-Products/FreeRTOS-Plus-IO/Device/LPC17xx/FreeRTOS_lpc17xx_uart.o
 .text.FreeRTOS_UART_open
                0x00000000       0xb0 ./Source/FreeRTOS-Products/FreeRTOS-Plus-IO/Device/LPC17xx/FreeRTOS_lpc17xx_uart.o
 .text.Unused_UART3_IRQHandler
                0x00000000       0x54 ./Source/FreeRTOS-Products/FreeRTOS-Plus-IO/Device/LPC17xx/FreeRTOS_lpc17xx_uart.o
 .rodata.xIRQ   0x00000000        0x4 ./Source/FreeRTOS-Products/FreeRTOS-Plus-IO/Device/LPC17xx/FreeRTOS_lpc17xx_uart.o
 .bss.pxRxTransferControlStructs
                0x00000000       0x10 ./Source/FreeRTOS-Products/FreeRTOS-Plus-IO/Device/LPC17xx/FreeRTOS_lpc17xx_uart.o
 .bss.pxTxTransferControlStructs
                0x00000000       0x10 ./Source/FreeRTOS-Products/FreeRTOS-Plus-IO/Device/LPC17xx/FreeRTOS_lpc17xx_uart.o
 .text          0x00000000        0x0 ./Source/FreeRTOS-Products/FreeRTOS-Plus-IO/Common/FreeRTOS_DriverInterface.o
 .data          0x00000000        0x0 ./Source/FreeRTOS-Products/FreeRTOS-Plus-IO/Common/FreeRTOS_DriverInterface.o
 .bss           0x00000000        0x0 ./Source/FreeRTOS-Products/FreeRTOS-Plus-IO/Common/FreeRTOS_DriverInterface.o
 .text.FreeRTOS_open
                0x00000000       0x70 ./Source/FreeRTOS-Products/FreeRTOS-Plus-IO/Common/FreeRTOS_DriverInterface.o
 .text.FreeRTOS_ioctl
                0x00000000       0xda ./Source/FreeRTOS-Products/FreeRTOS-Plus-IO/Common/FreeRTOS_DriverInterface.o
 .rodata.str1.1
                0x00000000       0x16 ./Source/FreeRTOS-Products/FreeRTOS-Plus-IO/Common/FreeRTOS_DriverInterface.o
 .rodata.xAvailablePeripherals
                0x00000000       0x24 ./Source/FreeRTOS-Products/FreeRTOS-Plus-IO/Common/FreeRTOS_DriverInterface.o
 .text          0x00000000        0x0 ./Source/FreeRTOS-Products/FreeRTOS-Plus-IO/Common/FreeRTOS_IOUtils.o
 .data          0x00000000        0x0 ./Source/FreeRTOS-Products/FreeRTOS-Plus-IO/Common/FreeRTOS_IOUtils.o
 .bss           0x00000000        0x0 ./Source/FreeRTOS-Products/FreeRTOS-Plus-IO/Common/FreeRTOS_IOUtils.o
 .text.vIOUtilsCreateTransferControlStructure
                0x00000000       0x4a ./Source/FreeRTOS-Products/FreeRTOS-Plus-IO/Common/FreeRTOS_IOUtils.o
 .text          0x00000000        0x0 ./Source/FreeRTOS-Products/FreeRTOS-Plus-IO/Common/IOUtils_CharQueueTxAndRx.o
 .data          0x00000000        0x0 ./Source/FreeRTOS-Products/FreeRTOS-Plus-IO/Common/IOUtils_CharQueueTxAndRx.o
 .bss           0x00000000        0x0 ./Source/FreeRTOS-Products/FreeRTOS-Plus-IO/Common/IOUtils_CharQueueTxAndRx.o
 .text.xIOUtilsSetTxQueueTimeout
                0x00000000        0x8 ./Source/FreeRTOS-Products/FreeRTOS-Plus-IO/Common/IOUtils_CharQueueTxAndRx.o
 .text.vIOUtilsSetRxQueueTimeout
                0x00000000        0x8 ./Source/FreeRTOS-Products/FreeRTOS-Plus-IO/Common/IOUtils_CharQueueTxAndRx.o
 .text.xIOUtilsConfigureTransferQueue
                0x00000000       0x6c ./Source/FreeRTOS-Products/FreeRTOS-Plus-IO/Common/IOUtils_CharQueueTxAndRx.o
 .text.xIOUtilsReceiveCharsFromRxQueue
                0x00000000       0x40 ./Source/FreeRTOS-Products/FreeRTOS-Plus-IO/Common/IOUtils_CharQueueTxAndRx.o
 .text.xIOUtilsSendCharsToTxQueue
                0x00000000       0x3c ./Source/FreeRTOS-Products/FreeRTOS-Plus-IO/Common/IOUtils_CharQueueTxAndRx.o
 .text.xIOUtilsWaitTxQueueEmpty
                0x00000000       0x3e ./Source/FreeRTOS-Products/FreeRTOS-Plus-IO/Common/IOUtils_CharQueueTxAndRx.o
 .text.xIOUtilsClearRxCharQueue
                0x00000000       0x18 ./Source/FreeRTOS-Products/FreeRTOS-Plus-IO/Common/IOUtils_CharQueueTxAndRx.o
 .text          0x00000000        0x0 ./Source/FreeRTOS-Products/FreeRTOS-Plus-IO/Common/IOUtils_CircularBufferRx.o
 .data          0x00000000        0x0 ./Source/FreeRTOS-Products/FreeRTOS-Plus-IO/Common/IOUtils_CircularBufferRx.o
 .bss           0x00000000        0x0 ./Source/FreeRTOS-Products/FreeRTOS-Plus-IO/Common/IOUtils_CircularBufferRx.o
 .text.xIOUtilsConfigureCircularBufferRx
                0x00000000       0xa4 ./Source/FreeRTOS-Products/FreeRTOS-Plus-IO/Common/IOUtils_CircularBufferRx.o
 .text.vIOUtilsClearRxCircularBuffer
                0x00000000       0x18 ./Source/FreeRTOS-Products/FreeRTOS-Plus-IO/Common/IOUtils_CircularBufferRx.o
 .text.xIOUtilsReadCharsFromCircularBuffer
                0x00000000       0x7c ./Source/FreeRTOS-Products/FreeRTOS-Plus-IO/Common/IOUtils_CircularBufferRx.o
 .text.vIOUtilsSetCircularBufferTimeout
                0x00000000        0x8 ./Source/FreeRTOS-Products/FreeRTOS-Plus-IO/Common/IOUtils_CircularBufferRx.o
 .text          0x00000000        0x0 ./Source/FreeRTOS-Products/FreeRTOS-Plus-IO/Common/IOUtils_ZeroCopyTx.o
 .data          0x00000000        0x0 ./Source/FreeRTOS-Products/FreeRTOS-Plus-IO/Common/IOUtils_ZeroCopyTx.o
 .bss           0x00000000        0x0 ./Source/FreeRTOS-Products/FreeRTOS-Plus-IO/Common/IOUtils_ZeroCopyTx.o
 .text.xIOUtilsConfigureZeroCopyTx
                0x00000000       0x50 ./Source/FreeRTOS-Products/FreeRTOS-Plus-IO/Common/IOUtils_ZeroCopyTx.o
 .text.xIOUtilsGetZeroCopyWriteMutex
                0x00000000       0x38 ./Source/FreeRTOS-Products/FreeRTOS-Plus-IO/Common/IOUtils_ZeroCopyTx.o
 .text.xIOUtilsReleaseZeroCopyWriteMutex
                0x00000000       0x1c ./Source/FreeRTOS-Products/FreeRTOS-Plus-IO/Common/IOUtils_ZeroCopyTx.o
 .text          0x00000000        0x0 ./Source/FreeRTOS-Products/FreeRTOS-Plus-CLI/FreeRTOS_CLI.o
 .data          0x00000000        0x0 ./Source/FreeRTOS-Products/FreeRTOS-Plus-CLI/FreeRTOS_CLI.o
 .bss           0x00000000        0x0 ./Source/FreeRTOS-Products/FreeRTOS-Plus-CLI/FreeRTOS_CLI.o
 .text.FreeRTOS_CLIGetParameter
                0x00000000       0x4a ./Source/FreeRTOS-Products/FreeRTOS-Plus-CLI/FreeRTOS_CLI.o
 .text          0x00000000        0x0 ./Source/FreeRTOS-Products/FreeRTOS/croutine.o
 .data          0x00000000        0x0 ./Source/FreeRTOS-Products/FreeRTOS/croutine.o
 .bss           0x00000000        0x0 ./Source/FreeRTOS-Products/FreeRTOS/croutine.o
 .text.xCoRoutineCreate
                0x00000000       0xc8 ./Source/FreeRTOS-Products/FreeRTOS/croutine.o
 .text.vCoRoutineAddToDelayedList
                0x00000000       0x50 ./Source/FreeRTOS-Products/FreeRTOS/croutine.o
 .text.vCoRoutineSchedule
                0x00000000      0x150 ./Source/FreeRTOS-Products/FreeRTOS/croutine.o
 .text.xCoRoutineRemoveFromEventList
                0x00000000       0x34 ./Source/FreeRTOS-Products/FreeRTOS/croutine.o
 .bss.xDelayedCoRoutineList1
                0x00000000       0x14 ./Source/FreeRTOS-Products/FreeRTOS/croutine.o
 .bss.xPassedTicks
                0x00000000        0x4 ./Source/FreeRTOS-Products/FreeRTOS/croutine.o
 .bss.xPendingReadyCoRoutineList
                0x00000000       0x14 ./Source/FreeRTOS-Products/FreeRTOS/croutine.o
 .bss.pxCurrentCoRoutine
                0x00000000        0x4 ./Source/FreeRTOS-Products/FreeRTOS/croutine.o
 .bss.xDelayedCoRoutineList2
                0x00000000       0x14 ./Source/FreeRTOS-Products/FreeRTOS/croutine.o
 .bss.xCoRoutineTickCount
                0x00000000        0x4 ./Source/FreeRTOS-Products/FreeRTOS/croutine.o
 .bss.xLastTickCount
                0x00000000        0x4 ./Source/FreeRTOS-Products/FreeRTOS/croutine.o
 .bss.pxDelayedCoRoutineList
                0x00000000        0x4 ./Source/FreeRTOS-Products/FreeRTOS/croutine.o
 .bss.pxReadyCoRoutineLists
                0x00000000       0x28 ./Source/FreeRTOS-Products/FreeRTOS/croutine.o
 .bss.uxTopCoRoutineReadyPriority
                0x00000000        0x4 ./Source/FreeRTOS-Products/FreeRTOS/croutine.o
 .bss.pxOverflowDelayedCoRoutineList
                0x00000000        0x4 ./Source/FreeRTOS-Products/FreeRTOS/croutine.o
 .text          0x00000000        0x0 ./Source/FreeRTOS-Products/FreeRTOS/list.o
 .data          0x00000000        0x0 ./Source/FreeRTOS-Products/FreeRTOS/list.o
 .bss           0x00000000        0x0 ./Source/FreeRTOS-Products/FreeRTOS/list.o
 .text          0x00000000        0x0 ./Source/FreeRTOS-Products/FreeRTOS/queue.o
 .data          0x00000000        0x0 ./Source/FreeRTOS-Products/FreeRTOS/queue.o
 .bss           0x00000000        0x0 ./Source/FreeRTOS-Products/FreeRTOS/queue.o
 .text.xQueueGetMutexHolder
                0x00000000        0xc ./Source/FreeRTOS-Products/FreeRTOS/queue.o
 .text.xQueueGiveMutexRecursive
                0x00000000       0x38 ./Source/FreeRTOS-Products/FreeRTOS/queue.o
 .text.xQueueTakeMutexRecursive
                0x00000000       0x3e ./Source/FreeRTOS-Products/FreeRTOS/queue.o
 .text.uxQueueMessagesWaitingFromISR
                0x00000000       0x10 ./Source/FreeRTOS-Products/FreeRTOS/queue.o
 .text.ucQueueGetQueueNumber
                0x00000000        0x6 ./Source/FreeRTOS-Products/FreeRTOS/queue.o
 .text.vQueueSetQueueNumber
                0x00000000        0x6 ./Source/FreeRTOS-Products/FreeRTOS/queue.o
 .text.ucQueueGetQueueType
                0x00000000        0x6 ./Source/FreeRTOS-Products/FreeRTOS/queue.o
 .text.xQueueIsQueueEmptyFromISR
                0x00000000       0x18 ./Source/FreeRTOS-Products/FreeRTOS/queue.o
 .text.xQueueIsQueueFullFromISR
                0x00000000       0x1a ./Source/FreeRTOS-Products/FreeRTOS/queue.o
 .text.vQueueAddToRegistry
                0x00000000       0x24 ./Source/FreeRTOS-Products/FreeRTOS/queue.o
 .text          0x00000000        0x0 ./Source/FreeRTOS-Products/FreeRTOS/tasks.o
 .data          0x00000000        0x0 ./Source/FreeRTOS-Products/FreeRTOS/tasks.o
 .bss           0x00000000        0x0 ./Source/FreeRTOS-Products/FreeRTOS/tasks.o
 .text.uxTaskPriorityGet
                0x00000000       0x1c ./Source/FreeRTOS-Products/FreeRTOS/tasks.o
 .text.vTaskPrioritySet
                0x00000000       0xa0 ./Source/FreeRTOS-Products/FreeRTOS/tasks.o
 .text.xTaskIsTaskSuspended
                0x00000000       0x38 ./Source/FreeRTOS-Products/FreeRTOS/tasks.o
 .text.vTaskResume
                0x00000000       0x6c ./Source/FreeRTOS-Products/FreeRTOS/tasks.o
 .text.xTaskResumeFromISR
                0x00000000       0x88 ./Source/FreeRTOS-Products/FreeRTOS/tasks.o
 .text.vTaskEndScheduler
                0x00000000       0x18 ./Source/FreeRTOS-Products/FreeRTOS/tasks.o
 .text.uxTaskGetNumberOfTasks
                0x00000000        0xc ./Source/FreeRTOS-Products/FreeRTOS/tasks.o
 .text.vTaskDelayUntil
                0x00000000       0x78 ./Source/FreeRTOS-Products/FreeRTOS/tasks.o
 .text.vTaskSuspend
                0x00000000       0x7c ./Source/FreeRTOS-Products/FreeRTOS/tasks.o
 .text.uxTaskGetTaskNumber
                0x00000000        0x6 ./Source/FreeRTOS-Products/FreeRTOS/tasks.o
 .text.vTaskSetTaskNumber
                0x00000000        0x6 ./Source/FreeRTOS-Products/FreeRTOS/tasks.o
 .text.uxTaskGetStackHighWaterMark
                0x00000000       0x14 ./Source/FreeRTOS-Products/FreeRTOS/tasks.o
 .text          0x00000000        0x0 ./Source/FreeRTOS-Products/FreeRTOS/timers.o
 .data          0x00000000        0x0 ./Source/FreeRTOS-Products/FreeRTOS/timers.o
 .bss           0x00000000        0x0 ./Source/FreeRTOS-Products/FreeRTOS/timers.o
 .text.xTimerIsTimerActive
                0x00000000       0x18 ./Source/FreeRTOS-Products/FreeRTOS/timers.o
 .text.pvTimerGetTimerID
                0x00000000        0x4 ./Source/FreeRTOS-Products/FreeRTOS/timers.o
 .text          0x00000000        0x0 ./Source/FreeRTOS-Products/FreeRTOS/portable/GCC/ARM_CM3/port.o
 .data          0x00000000        0x0 ./Source/FreeRTOS-Products/FreeRTOS/portable/GCC/ARM_CM3/port.o
 .bss           0x00000000        0x0 ./Source/FreeRTOS-Products/FreeRTOS/portable/GCC/ARM_CM3/port.o
 .text.vPortEndScheduler
                0x00000000        0x2 ./Source/FreeRTOS-Products/FreeRTOS/portable/GCC/ARM_CM3/port.o
 .rodata.ulKernelPriority
                0x00000000        0x4 ./Source/FreeRTOS-Products/FreeRTOS/portable/GCC/ARM_CM3/port.o
 .text          0x00000000        0x0 ./Source/FatFS/ff.o
 .data          0x00000000        0x0 ./Source/FatFS/ff.o
 .bss           0x00000000        0x0 ./Source/FatFS/ff.o
 .text.mem_cpy  0x00000000       0x12 ./Source/FatFS/ff.o
 .text.mem_set  0x00000000        0xe ./Source/FatFS/ff.o
 .text.get_fileinfo
                0x00000000       0x82 ./Source/FatFS/ff.o
 .text.check_fs
                0x00000000       0x88 ./Source/FatFS/ff.o
 .text.move_window
                0x00000000       0x7c ./Source/FatFS/ff.o
 .text.sync     0x00000000       0xb2 ./Source/FatFS/ff.o
 .text.lock_fs.clone.1
                0x00000000        0x4 ./Source/FatFS/ff.o
 .text.chk_mounted
                0x00000000      0x33c ./Source/FatFS/ff.o
 .text.validate
                0x00000000       0x30 ./Source/FatFS/ff.o
 .text.unlock_fs.clone.2
                0x00000000       0x1a ./Source/FatFS/ff.o
 .text.clust2sect
                0x00000000       0x18 ./Source/FatFS/ff.o
 .text.get_fat  0x00000000       0xd2 ./Source/FatFS/ff.o
 .text.dir_sdi  0x00000000       0x8a ./Source/FatFS/ff.o
 .text.dir_remove
                0x00000000       0x24 ./Source/FatFS/ff.o
 .text.put_fat  0x00000000       0xf8 ./Source/FatFS/ff.o
 .text.create_chain
                0x00000000       0x9e ./Source/FatFS/ff.o
 .text.dir_next
                0x00000000      0x108 ./Source/FatFS/ff.o
 .text.follow_path
                0x00000000      0x190 ./Source/FatFS/ff.o
 .text.dir_register
                0x00000000       0x5e ./Source/FatFS/ff.o
 .text.dir_read
                0x00000000       0x4a ./Source/FatFS/ff.o
 .text.remove_chain
                0x00000000       0x5a ./Source/FatFS/ff.o
 .text.f_mount  0x00000000       0x40 ./Source/FatFS/ff.o
 .text.f_open   0x00000000      0x15a ./Source/FatFS/ff.o
 .text.f_read   0x00000000      0x1aa ./Source/FatFS/ff.o
 .text.f_write  0x00000000      0x1f0 ./Source/FatFS/ff.o
 .text.f_sync   0x00000000       0xbc ./Source/FatFS/ff.o
 .text.f_close  0x00000000        0xe ./Source/FatFS/ff.o
 .text.f_lseek  0x00000000      0x1b6 ./Source/FatFS/ff.o
 .text.f_opendir
                0x00000000       0x74 ./Source/FatFS/ff.o
 .text.f_readdir
                0x00000000       0x5e ./Source/FatFS/ff.o
 .text.f_stat   0x00000000       0x4a ./Source/FatFS/ff.o
 .text.f_getfree
                0x00000000       0xf2 ./Source/FatFS/ff.o
 .text.f_truncate
                0x00000000       0xa2 ./Source/FatFS/ff.o
 .text.f_unlink
                0x00000000       0xca ./Source/FatFS/ff.o
 .text.f_mkdir  0x00000000      0x1d6 ./Source/FatFS/ff.o
 .text.f_chmod  0x00000000       0x62 ./Source/FatFS/ff.o
 .text.f_utime  0x00000000       0x62 ./Source/FatFS/ff.o
 .text.f_rename
                0x00000000      0x128 ./Source/FatFS/ff.o
 .rodata.str1.1
                0x00000000        0xf ./Source/FatFS/ff.o
 .bss.Fsid      0x00000000        0x2 ./Source/FatFS/ff.o
 .bss.FatFs     0x00000000        0x4 ./Source/FatFS/ff.o
 .text          0x00000000        0x0 ./Source/FatFS/mmc.o
 .data          0x00000000        0x0 ./Source/FatFS/mmc.o
 .bss           0x00000000        0x0 ./Source/FatFS/mmc.o
 .text.prvIsDiskInserted
                0x00000000       0x2c ./Source/FatFS/mmc.o
 .text.prvWaitForCardReady
                0x00000000       0x40 ./Source/FatFS/mmc.o
 .text.prvWriteDataBlock
                0x00000000       0xcc ./Source/FatFS/mmc.o
 .text.prvDeselectCard
                0x00000000       0x20 ./Source/FatFS/mmc.o
 .text.prvSelectCard
                0x00000000       0x1e ./Source/FatFS/mmc.o
 .text.prvSendCommand
                0x00000000       0xcc ./Source/FatFS/mmc.o
 .text.prvReceiveDataBlock.clone.0
                0x00000000       0x64 ./Source/FatFS/mmc.o
 .text.prvQueryCard.clone.1
                0x00000000       0x90 ./Source/FatFS/mmc.o
 .text.xMMCGetSPIPortHandle
                0x00000000        0xc ./Source/FatFS/mmc.o
 .text.disk_initialize
                0x00000000      0x1e4 ./Source/FatFS/mmc.o
 .text.disk_status
                0x00000000       0x18 ./Source/FatFS/mmc.o
 .text.disk_read
                0x00000000       0x90 ./Source/FatFS/mmc.o
 .text.disk_write
                0x00000000       0xb4 ./Source/FatFS/mmc.o
 .text.disk_ioctl
                0x00000000      0x204 ./Source/FatFS/mmc.o
 .text.get_fattime
                0x00000000        0x4 ./Source/FatFS/mmc.o
 .bss.xLocalSPIPort.3065
                0x00000000        0x4 ./Source/FatFS/mmc.o
 .rodata.C.26.4352
                0x00000000        0x2 ./Source/FatFS/mmc.o
 .rodata.str1.1
                0x00000000        0x7 ./Source/FatFS/mmc.o
 .bss.xSPIPort  0x00000000        0x4 ./Source/FatFS/mmc.o
 .data.xDiskStatus
                0x00000000        0x1 ./Source/FatFS/mmc.o
 .bss.ucInsertedCardType
                0x00000000        0x1 ./Source/FatFS/mmc.o
 .text          0x00000000        0x0 ./Source/FatFS/syscall.o
 .data          0x00000000        0x0 ./Source/FatFS/syscall.o
 .bss           0x00000000        0x0 ./Source/FatFS/syscall.o
 .text.ff_cre_syncobj
                0x00000000       0x14 ./Source/FatFS/syscall.o
 .text.ff_del_syncobj
                0x00000000        0x4 ./Source/FatFS/syscall.o
 .text.ff_req_grant
                0x00000000       0x1a ./Source/FatFS/syscall.o
 .text.ff_rel_grant
                0x00000000        0xa ./Source/FatFS/syscall.o
 .text          0x00000000        0x0 ./Source/Examples/SSP/SPI-interface-to-SD-card.o
 .data          0x00000000        0x0 ./Source/Examples/SSP/SPI-interface-to-SD-card.o
 .bss           0x00000000        0x0 ./Source/Examples/SSP/SPI-interface-to-SD-card.o
 .text.prvFileOperationFailed
                0x00000000        0xe ./Source/Examples/SSP/SPI-interface-to-SD-card.o
 .text.prvCopyCommand
                0x00000000      0x10c ./Source/Examples/SSP/SPI-interface-to-SD-card.o
 .text.prvDelCommand
                0x00000000       0x34 ./Source/Examples/SSP/SPI-interface-to-SD-card.o
 .text.prvDirCommand
                0x00000000       0x7c ./Source/Examples/SSP/SPI-interface-to-SD-card.o
 .text.prvWriteFilesToDisk
                0x00000000       0xbc ./Source/Examples/SSP/SPI-interface-to-SD-card.o
 .text.prvReadBackCreatedFiles
                0x00000000      0x100 ./Source/Examples/SSP/SPI-interface-to-SD-card.o
 .text.prvSPIToSDCardTask
                0x00000000       0xe0 ./Source/Examples/SSP/SPI-interface-to-SD-card.o
 .text.vStartSPIInterfaceToSDCardTask
                0x00000000       0x5c ./Source/Examples/SSP/SPI-interface-to-SD-card.o
 .rodata.xDirCommand
                0x00000000       0x10 ./Source/Examples/SSP/SPI-interface-to-SD-card.o
 .bss.xFatfs    0x00000000      0x234 ./Source/Examples/SSP/SPI-interface-to-SD-card.o
 .rodata.xCopyCommand
                0x00000000       0x10 ./Source/Examples/SSP/SPI-interface-to-SD-card.o
 .bss.cFileName.3480
                0x00000000        0xd ./Source/Examples/SSP/SPI-interface-to-SD-card.o
 .bss.xRamBufferMutex
                0x00000000        0x4 ./Source/Examples/SSP/SPI-interface-to-SD-card.o
 .bss.xCommandLineFile1
                0x00000000      0x224 ./Source/Examples/SSP/SPI-interface-to-SD-card.o
 .bss.xCommandLineFile2
                0x00000000      0x224 ./Source/Examples/SSP/SPI-interface-to-SD-card.o
 .bss.xDirectoryOpen.3497
                0x00000000        0x4 ./Source/Examples/SSP/SPI-interface-to-SD-card.o
 .rodata.str1.1
                0x00000000      0x19e ./Source/Examples/SSP/SPI-interface-to-SD-card.o
 .bss.xDirectory.3499
                0x00000000       0x1c ./Source/Examples/SSP/SPI-interface-to-SD-card.o
 .bss.cRAMBuffer
                0x00000000      0x7d0 ./Source/Examples/SSP/SPI-interface-to-SD-card.o
 .bss.xFileInfo.3498
                0x00000000       0x18 ./Source/Examples/SSP/SPI-interface-to-SD-card.o
 .rodata.xDelCommand
                0x00000000       0x10 ./Source/Examples/SSP/SPI-interface-to-SD-card.o
 .text          0x00000000        0x0 ./Source/Examples/GPIO/GPIO-output-and-software-timers.o
 .data          0x00000000        0x0 ./Source/Examples/GPIO/GPIO-output-and-software-timers.o
 .bss           0x00000000        0x0 ./Source/Examples/GPIO/GPIO-output-and-software-timers.o
 .text          0x00000000        0x0 C:\Users\m.paffi.ATESISTEMI\Documents\CCTA-OS\lpc17xx.cmsis.driver.library\Debug\liblpc17xx.cmsis.driver.library.a(lpc17xx_emac.o)
 .data          0x00000000        0x0 C:\Users\m.paffi.ATESISTEMI\Documents\CCTA-OS\lpc17xx.cmsis.driver.library\Debug\liblpc17xx.cmsis.driver.library.a(lpc17xx_emac.o)
 .bss           0x00000000        0x0 C:\Users\m.paffi.ATESISTEMI\Documents\CCTA-OS\lpc17xx.cmsis.driver.library\Debug\liblpc17xx.cmsis.driver.library.a(lpc17xx_emac.o)
 .text.emac_CRCCalc
                0x00000000      0x130 C:\Users\m.paffi.ATESISTEMI\Documents\CCTA-OS\lpc17xx.cmsis.driver.library\Debug\liblpc17xx.cmsis.driver.library.a(lpc17xx_emac.o)
 .text.EMAC_DeInit
                0x00000000       0x2c C:\Users\m.paffi.ATESISTEMI\Documents\CCTA-OS\lpc17xx.cmsis.driver.library\Debug\liblpc17xx.cmsis.driver.library.a(lpc17xx_emac.o)
 .text.EMAC_CheckPHYStatus
                0x00000000       0x6c C:\Users\m.paffi.ATESISTEMI\Documents\CCTA-OS\lpc17xx.cmsis.driver.library\Debug\liblpc17xx.cmsis.driver.library.a(lpc17xx_emac.o)
 .text.EMAC_SetHashFilter
                0x00000000       0xa0 C:\Users\m.paffi.ATESISTEMI\Documents\CCTA-OS\lpc17xx.cmsis.driver.library\Debug\liblpc17xx.cmsis.driver.library.a(lpc17xx_emac.o)
 .text.EMAC_SetFilterMode
                0x00000000       0x54 C:\Users\m.paffi.ATESISTEMI\Documents\CCTA-OS\lpc17xx.cmsis.driver.library\Debug\liblpc17xx.cmsis.driver.library.a(lpc17xx_emac.o)
 .text.EMAC_GetWoLStatus
                0x00000000       0x3c C:\Users\m.paffi.ATESISTEMI\Documents\CCTA-OS\lpc17xx.cmsis.driver.library\Debug\liblpc17xx.cmsis.driver.library.a(lpc17xx_emac.o)
 .text.EMAC_WritePacketBuffer
                0x00000000       0x88 C:\Users\m.paffi.ATESISTEMI\Documents\CCTA-OS\lpc17xx.cmsis.driver.library\Debug\liblpc17xx.cmsis.driver.library.a(lpc17xx_emac.o)
 .text.EMAC_ReadPacketBuffer
                0x00000000       0x70 C:\Users\m.paffi.ATESISTEMI\Documents\CCTA-OS\lpc17xx.cmsis.driver.library\Debug\liblpc17xx.cmsis.driver.library.a(lpc17xx_emac.o)
 .text.EMAC_IntCmd
                0x00000000       0x54 C:\Users\m.paffi.ATESISTEMI\Documents\CCTA-OS\lpc17xx.cmsis.driver.library\Debug\liblpc17xx.cmsis.driver.library.a(lpc17xx_emac.o)
 .text.EMAC_IntGetStatus
                0x00000000       0x3c C:\Users\m.paffi.ATESISTEMI\Documents\CCTA-OS\lpc17xx.cmsis.driver.library\Debug\liblpc17xx.cmsis.driver.library.a(lpc17xx_emac.o)
 .text.EMAC_UpdateTxProduceIndex
                0x00000000       0x38 C:\Users\m.paffi.ATESISTEMI\Documents\CCTA-OS\lpc17xx.cmsis.driver.library\Debug\liblpc17xx.cmsis.driver.library.a(lpc17xx_emac.o)
 .text          0x00000000        0x0 C:\Users\m.paffi.ATESISTEMI\Documents\CCTA-OS\lpc17xx.cmsis.driver.library\Debug\liblpc17xx.cmsis.driver.library.a(lpc17xx_gpio.o)
 .data          0x00000000        0x0 C:\Users\m.paffi.ATESISTEMI\Documents\CCTA-OS\lpc17xx.cmsis.driver.library\Debug\liblpc17xx.cmsis.driver.library.a(lpc17xx_gpio.o)
 .bss           0x00000000        0x0 C:\Users\m.paffi.ATESISTEMI\Documents\CCTA-OS\lpc17xx.cmsis.driver.library\Debug\liblpc17xx.cmsis.driver.library.a(lpc17xx_gpio.o)
 .text.FIO_HalfWordGetPointer
                0x00000000       0x7c C:\Users\m.paffi.ATESISTEMI\Documents\CCTA-OS\lpc17xx.cmsis.driver.library\Debug\liblpc17xx.cmsis.driver.library.a(lpc17xx_gpio.o)
 .text.FIO_ByteGetPointer
                0x00000000       0x7c C:\Users\m.paffi.ATESISTEMI\Documents\CCTA-OS\lpc17xx.cmsis.driver.library\Debug\liblpc17xx.cmsis.driver.library.a(lpc17xx_gpio.o)
 .text.GPIO_ReadValue
                0x00000000       0x30 C:\Users\m.paffi.ATESISTEMI\Documents\CCTA-OS\lpc17xx.cmsis.driver.library\Debug\liblpc17xx.cmsis.driver.library.a(lpc17xx_gpio.o)
 .text.GPIO_IntCmd
                0x00000000       0x84 C:\Users\m.paffi.ATESISTEMI\Documents\CCTA-OS\lpc17xx.cmsis.driver.library\Debug\liblpc17xx.cmsis.driver.library.a(lpc17xx_gpio.o)
 .text.GPIO_GetIntStatus
                0x00000000       0xc0 C:\Users\m.paffi.ATESISTEMI\Documents\CCTA-OS\lpc17xx.cmsis.driver.library\Debug\liblpc17xx.cmsis.driver.library.a(lpc17xx_gpio.o)
 .text.GPIO_ClearInt
                0x00000000       0x40 C:\Users\m.paffi.ATESISTEMI\Documents\CCTA-OS\lpc17xx.cmsis.driver.library\Debug\liblpc17xx.cmsis.driver.library.a(lpc17xx_gpio.o)
 .text.FIO_SetDir
                0x00000000       0x28 C:\Users\m.paffi.ATESISTEMI\Documents\CCTA-OS\lpc17xx.cmsis.driver.library\Debug\liblpc17xx.cmsis.driver.library.a(lpc17xx_gpio.o)
 .text.FIO_SetValue
                0x00000000       0x20 C:\Users\m.paffi.ATESISTEMI\Documents\CCTA-OS\lpc17xx.cmsis.driver.library\Debug\liblpc17xx.cmsis.driver.library.a(lpc17xx_gpio.o)
 .text.FIO_ClearValue
                0x00000000       0x20 C:\Users\m.paffi.ATESISTEMI\Documents\CCTA-OS\lpc17xx.cmsis.driver.library\Debug\liblpc17xx.cmsis.driver.library.a(lpc17xx_gpio.o)
 .text.FIO_ReadValue
                0x00000000       0x20 C:\Users\m.paffi.ATESISTEMI\Documents\CCTA-OS\lpc17xx.cmsis.driver.library\Debug\liblpc17xx.cmsis.driver.library.a(lpc17xx_gpio.o)
 .text.FIO_IntCmd
                0x00000000       0x28 C:\Users\m.paffi.ATESISTEMI\Documents\CCTA-OS\lpc17xx.cmsis.driver.library\Debug\liblpc17xx.cmsis.driver.library.a(lpc17xx_gpio.o)
 .text.FIO_GetIntStatus
                0x00000000       0x2c C:\Users\m.paffi.ATESISTEMI\Documents\CCTA-OS\lpc17xx.cmsis.driver.library\Debug\liblpc17xx.cmsis.driver.library.a(lpc17xx_gpio.o)
 .text.FIO_ClearInt
                0x00000000       0x20 C:\Users\m.paffi.ATESISTEMI\Documents\CCTA-OS\lpc17xx.cmsis.driver.library\Debug\liblpc17xx.cmsis.driver.library.a(lpc17xx_gpio.o)
 .text.FIO_SetMask
                0x00000000       0x58 C:\Users\m.paffi.ATESISTEMI\Documents\CCTA-OS\lpc17xx.cmsis.driver.library\Debug\liblpc17xx.cmsis.driver.library.a(lpc17xx_gpio.o)
 .text.FIO_HalfWordSetDir
                0x00000000       0xa4 C:\Users\m.paffi.ATESISTEMI\Documents\CCTA-OS\lpc17xx.cmsis.driver.library\Debug\liblpc17xx.cmsis.driver.library.a(lpc17xx_gpio.o)
 .text.FIO_HalfWordSetMask
                0x00000000       0xa4 C:\Users\m.paffi.ATESISTEMI\Documents\CCTA-OS\lpc17xx.cmsis.driver.library\Debug\liblpc17xx.cmsis.driver.library.a(lpc17xx_gpio.o)
 .text.FIO_HalfWordSetValue
                0x00000000       0x40 C:\Users\m.paffi.ATESISTEMI\Documents\CCTA-OS\lpc17xx.cmsis.driver.library\Debug\liblpc17xx.cmsis.driver.library.a(lpc17xx_gpio.o)
 .text.FIO_HalfWordClearValue
                0x00000000       0x40 C:\Users\m.paffi.ATESISTEMI\Documents\CCTA-OS\lpc17xx.cmsis.driver.library\Debug\liblpc17xx.cmsis.driver.library.a(lpc17xx_gpio.o)
 .text.FIO_HalfWordReadValue
                0x00000000       0x44 C:\Users\m.paffi.ATESISTEMI\Documents\CCTA-OS\lpc17xx.cmsis.driver.library\Debug\liblpc17xx.cmsis.driver.library.a(lpc17xx_gpio.o)
 .text.FIO_ByteSetDir
                0x00000000       0x78 C:\Users\m.paffi.ATESISTEMI\Documents\CCTA-OS\lpc17xx.cmsis.driver.library\Debug\liblpc17xx.cmsis.driver.library.a(lpc17xx_gpio.o)
 .text.FIO_ByteSetMask
                0x00000000       0x80 C:\Users\m.paffi.ATESISTEMI\Documents\CCTA-OS\lpc17xx.cmsis.driver.library\Debug\liblpc17xx.cmsis.driver.library.a(lpc17xx_gpio.o)
 .text.FIO_ByteSetValue
                0x00000000       0x3c C:\Users\m.paffi.ATESISTEMI\Documents\CCTA-OS\lpc17xx.cmsis.driver.library\Debug\liblpc17xx.cmsis.driver.library.a(lpc17xx_gpio.o)
 .text.FIO_ByteClearValue
                0x00000000       0x3c C:\Users\m.paffi.ATESISTEMI\Documents\CCTA-OS\lpc17xx.cmsis.driver.library\Debug\liblpc17xx.cmsis.driver.library.a(lpc17xx_gpio.o)
 .text.FIO_ByteReadValue
                0x00000000       0x40 C:\Users\m.paffi.ATESISTEMI\Documents\CCTA-OS\lpc17xx.cmsis.driver.library\Debug\liblpc17xx.cmsis.driver.library.a(lpc17xx_gpio.o)
 .text          0x00000000        0x0 C:\Users\m.paffi.ATESISTEMI\Documents\CCTA-OS\lpc17xx.cmsis.driver.library\Debug\liblpc17xx.cmsis.driver.library.a(lpc17xx_i2c.o)
 .data          0x00000000        0x0 C:\Users\m.paffi.ATESISTEMI\Documents\CCTA-OS\lpc17xx.cmsis.driver.library\Debug\liblpc17xx.cmsis.driver.library.a(lpc17xx_i2c.o)
 .bss           0x00000000        0x0 C:\Users\m.paffi.ATESISTEMI\Documents\CCTA-OS\lpc17xx.cmsis.driver.library\Debug\liblpc17xx.cmsis.driver.library.a(lpc17xx_i2c.o)
 .text.NVIC_EnableIRQ
                0x00000000       0x38 C:\Users\m.paffi.ATESISTEMI\Documents\CCTA-OS\lpc17xx.cmsis.driver.library\Debug\liblpc17xx.cmsis.driver.library.a(lpc17xx_i2c.o)
 .text.NVIC_DisableIRQ
                0x00000000       0x3c C:\Users\m.paffi.ATESISTEMI\Documents\CCTA-OS\lpc17xx.cmsis.driver.library\Debug\liblpc17xx.cmsis.driver.library.a(lpc17xx_i2c.o)
 .bss.i2cdat    0x00000000       0x18 C:\Users\m.paffi.ATESISTEMI\Documents\CCTA-OS\lpc17xx.cmsis.driver.library\Debug\liblpc17xx.cmsis.driver.library.a(lpc17xx_i2c.o)
 .bss.I2C_MasterComplete
                0x00000000        0xc C:\Users\m.paffi.ATESISTEMI\Documents\CCTA-OS\lpc17xx.cmsis.driver.library\Debug\liblpc17xx.cmsis.driver.library.a(lpc17xx_i2c.o)
 .bss.I2C_SlaveComplete
                0x00000000        0xc C:\Users\m.paffi.ATESISTEMI\Documents\CCTA-OS\lpc17xx.cmsis.driver.library\Debug\liblpc17xx.cmsis.driver.library.a(lpc17xx_i2c.o)
 .bss.I2C_MonitorBufferIndex
                0x00000000        0x4 C:\Users\m.paffi.ATESISTEMI\Documents\CCTA-OS\lpc17xx.cmsis.driver.library\Debug\liblpc17xx.cmsis.driver.library.a(lpc17xx_i2c.o)
 .text.I2C_getNum
                0x00000000       0x54 C:\Users\m.paffi.ATESISTEMI\Documents\CCTA-OS\lpc17xx.cmsis.driver.library\Debug\liblpc17xx.cmsis.driver.library.a(lpc17xx_i2c.o)
 .text.I2C_Start
                0x00000000       0x44 C:\Users\m.paffi.ATESISTEMI\Documents\CCTA-OS\lpc17xx.cmsis.driver.library\Debug\liblpc17xx.cmsis.driver.library.a(lpc17xx_i2c.o)
 .text.I2C_Stop
                0x00000000       0x38 C:\Users\m.paffi.ATESISTEMI\Documents\CCTA-OS\lpc17xx.cmsis.driver.library\Debug\liblpc17xx.cmsis.driver.library.a(lpc17xx_i2c.o)
 .text.I2C_SendByte
                0x00000000       0x50 C:\Users\m.paffi.ATESISTEMI\Documents\CCTA-OS\lpc17xx.cmsis.driver.library\Debug\liblpc17xx.cmsis.driver.library.a(lpc17xx_i2c.o)
 .text.I2C_GetByte
                0x00000000       0x5c C:\Users\m.paffi.ATESISTEMI\Documents\CCTA-OS\lpc17xx.cmsis.driver.library\Debug\liblpc17xx.cmsis.driver.library.a(lpc17xx_i2c.o)
 .rodata        0x00000000       0x18 C:\Users\m.paffi.ATESISTEMI\Documents\CCTA-OS\lpc17xx.cmsis.driver.library\Debug\liblpc17xx.cmsis.driver.library.a(lpc17xx_i2c.o)
 .text.I2C_SetClock
                0x00000000       0xc8 C:\Users\m.paffi.ATESISTEMI\Documents\CCTA-OS\lpc17xx.cmsis.driver.library\Debug\liblpc17xx.cmsis.driver.library.a(lpc17xx_i2c.o)
 .text.I2C_Init
                0x00000000       0xd8 C:\Users\m.paffi.ATESISTEMI\Documents\CCTA-OS\lpc17xx.cmsis.driver.library\Debug\liblpc17xx.cmsis.driver.library.a(lpc17xx_i2c.o)
 .text.I2C_DeInit
                0x00000000       0xa4 C:\Users\m.paffi.ATESISTEMI\Documents\CCTA-OS\lpc17xx.cmsis.driver.library\Debug\liblpc17xx.cmsis.driver.library.a(lpc17xx_i2c.o)
 .text.I2C_Cmd  0x00000000       0x84 C:\Users\m.paffi.ATESISTEMI\Documents\CCTA-OS\lpc17xx.cmsis.driver.library\Debug\liblpc17xx.cmsis.driver.library.a(lpc17xx_i2c.o)
 .text.I2C_IntCmd
                0x00000000       0xa8 C:\Users\m.paffi.ATESISTEMI\Documents\CCTA-OS\lpc17xx.cmsis.driver.library\Debug\liblpc17xx.cmsis.driver.library.a(lpc17xx_i2c.o)
 .text.I2C_MasterHandler
                0x00000000      0x3e4 C:\Users\m.paffi.ATESISTEMI\Documents\CCTA-OS\lpc17xx.cmsis.driver.library\Debug\liblpc17xx.cmsis.driver.library.a(lpc17xx_i2c.o)
 .text.I2C_SlaveHandler
                0x00000000      0x1d8 C:\Users\m.paffi.ATESISTEMI\Documents\CCTA-OS\lpc17xx.cmsis.driver.library\Debug\liblpc17xx.cmsis.driver.library.a(lpc17xx_i2c.o)
 .text.I2C_MasterTransferData
                0x00000000      0x33c C:\Users\m.paffi.ATESISTEMI\Documents\CCTA-OS\lpc17xx.cmsis.driver.library\Debug\liblpc17xx.cmsis.driver.library.a(lpc17xx_i2c.o)
 .text.I2C_SlaveTransferData
                0x00000000      0x268 C:\Users\m.paffi.ATESISTEMI\Documents\CCTA-OS\lpc17xx.cmsis.driver.library\Debug\liblpc17xx.cmsis.driver.library.a(lpc17xx_i2c.o)
 .text.I2C_SetOwnSlaveAddr
                0x00000000      0x118 C:\Users\m.paffi.ATESISTEMI\Documents\CCTA-OS\lpc17xx.cmsis.driver.library\Debug\liblpc17xx.cmsis.driver.library.a(lpc17xx_i2c.o)
 .text.I2C_MonitorModeConfig
                0x00000000       0x9c C:\Users\m.paffi.ATESISTEMI\Documents\CCTA-OS\lpc17xx.cmsis.driver.library\Debug\liblpc17xx.cmsis.driver.library.a(lpc17xx_i2c.o)
 .text.I2C_MonitorModeCmd
                0x00000000       0xb0 C:\Users\m.paffi.ATESISTEMI\Documents\CCTA-OS\lpc17xx.cmsis.driver.library\Debug\liblpc17xx.cmsis.driver.library.a(lpc17xx_i2c.o)
 .text.I2C_MonitorGetDatabuffer
                0x00000000       0x54 C:\Users\m.paffi.ATESISTEMI\Documents\CCTA-OS\lpc17xx.cmsis.driver.library\Debug\liblpc17xx.cmsis.driver.library.a(lpc17xx_i2c.o)
 .text.I2C_MonitorHandler
                0x00000000       0x6c C:\Users\m.paffi.ATESISTEMI\Documents\CCTA-OS\lpc17xx.cmsis.driver.library\Debug\liblpc17xx.cmsis.driver.library.a(lpc17xx_i2c.o)
 .text.I2C_MasterTransferComplete
                0x00000000       0x40 C:\Users\m.paffi.ATESISTEMI\Documents\CCTA-OS\lpc17xx.cmsis.driver.library\Debug\liblpc17xx.cmsis.driver.library.a(lpc17xx_i2c.o)
 .text.I2C_SlaveTransferComplete
                0x00000000       0x40 C:\Users\m.paffi.ATESISTEMI\Documents\CCTA-OS\lpc17xx.cmsis.driver.library\Debug\liblpc17xx.cmsis.driver.library.a(lpc17xx_i2c.o)
 .text          0x00000000        0x0 C:\Users\m.paffi.ATESISTEMI\Documents\CCTA-OS\lpc17xx.cmsis.driver.library\Debug\liblpc17xx.cmsis.driver.library.a(lpc17xx_libcfg_default.o)
 .data          0x00000000        0x0 C:\Users\m.paffi.ATESISTEMI\Documents\CCTA-OS\lpc17xx.cmsis.driver.library\Debug\liblpc17xx.cmsis.driver.library.a(lpc17xx_libcfg_default.o)
 .bss           0x00000000        0x0 C:\Users\m.paffi.ATESISTEMI\Documents\CCTA-OS\lpc17xx.cmsis.driver.library\Debug\liblpc17xx.cmsis.driver.library.a(lpc17xx_libcfg_default.o)
 .text.check_failed
                0x00000000        0xc C:\Users\m.paffi.ATESISTEMI\Documents\CCTA-OS\lpc17xx.cmsis.driver.library\Debug\liblpc17xx.cmsis.driver.library.a(lpc17xx_libcfg_default.o)
 .text          0x00000000        0x0 C:\Users\m.paffi.ATESISTEMI\Documents\CCTA-OS\lpc17xx.cmsis.driver.library\Debug\liblpc17xx.cmsis.driver.library.a(lpc17xx_pinsel.o)
 .data          0x00000000        0x0 C:\Users\m.paffi.ATESISTEMI\Documents\CCTA-OS\lpc17xx.cmsis.driver.library\Debug\liblpc17xx.cmsis.driver.library.a(lpc17xx_pinsel.o)
 .bss           0x00000000        0x0 C:\Users\m.paffi.ATESISTEMI\Documents\CCTA-OS\lpc17xx.cmsis.driver.library\Debug\liblpc17xx.cmsis.driver.library.a(lpc17xx_pinsel.o)
 .text.PINSEL_ConfigTraceFunc
                0x00000000       0x54 C:\Users\m.paffi.ATESISTEMI\Documents\CCTA-OS\lpc17xx.cmsis.driver.library\Debug\liblpc17xx.cmsis.driver.library.a(lpc17xx_pinsel.o)
 .text.PINSEL_SetI2C0Pins
                0x00000000       0x3c C:\Users\m.paffi.ATESISTEMI\Documents\CCTA-OS\lpc17xx.cmsis.driver.library\Debug\liblpc17xx.cmsis.driver.library.a(lpc17xx_pinsel.o)
 .text          0x00000000        0x0 C:\Users\m.paffi.ATESISTEMI\Documents\CCTA-OS\lpc17xx.cmsis.driver.library\Debug\liblpc17xx.cmsis.driver.library.a(lpc17xx_ssp.o)
 .data          0x00000000        0x0 C:\Users\m.paffi.ATESISTEMI\Documents\CCTA-OS\lpc17xx.cmsis.driver.library\Debug\liblpc17xx.cmsis.driver.library.a(lpc17xx_ssp.o)
 .bss           0x00000000        0x0 C:\Users\m.paffi.ATESISTEMI\Documents\CCTA-OS\lpc17xx.cmsis.driver.library\Debug\liblpc17xx.cmsis.driver.library.a(lpc17xx_ssp.o)
 .rodata        0x00000000       0x18 C:\Users\m.paffi.ATESISTEMI\Documents\CCTA-OS\lpc17xx.cmsis.driver.library\Debug\liblpc17xx.cmsis.driver.library.a(lpc17xx_ssp.o)
 .text.setSSPclock
                0x00000000       0xf8 C:\Users\m.paffi.ATESISTEMI\Documents\CCTA-OS\lpc17xx.cmsis.driver.library\Debug\liblpc17xx.cmsis.driver.library.a(lpc17xx_ssp.o)
 .text.SSP_Init
                0x00000000       0xbc C:\Users\m.paffi.ATESISTEMI\Documents\CCTA-OS\lpc17xx.cmsis.driver.library\Debug\liblpc17xx.cmsis.driver.library.a(lpc17xx_ssp.o)
 .text.SSP_DeInit
                0x00000000       0x74 C:\Users\m.paffi.ATESISTEMI\Documents\CCTA-OS\lpc17xx.cmsis.driver.library\Debug\liblpc17xx.cmsis.driver.library.a(lpc17xx_ssp.o)
 .text.SSP_GetDataSize
                0x00000000       0x4c C:\Users\m.paffi.ATESISTEMI\Documents\CCTA-OS\lpc17xx.cmsis.driver.library\Debug\liblpc17xx.cmsis.driver.library.a(lpc17xx_ssp.o)
 .text.SSP_ConfigStructInit
                0x00000000       0x48 C:\Users\m.paffi.ATESISTEMI\Documents\CCTA-OS\lpc17xx.cmsis.driver.library\Debug\liblpc17xx.cmsis.driver.library.a(lpc17xx_ssp.o)
 .text.SSP_Cmd  0x00000000       0x7c C:\Users\m.paffi.ATESISTEMI\Documents\CCTA-OS\lpc17xx.cmsis.driver.library\Debug\liblpc17xx.cmsis.driver.library.a(lpc17xx_ssp.o)
 .text.SSP_LoopBackCmd
                0x00000000       0x7c C:\Users\m.paffi.ATESISTEMI\Documents\CCTA-OS\lpc17xx.cmsis.driver.library\Debug\liblpc17xx.cmsis.driver.library.a(lpc17xx_ssp.o)
 .text.SSP_SlaveOutputCmd
                0x00000000       0x7c C:\Users\m.paffi.ATESISTEMI\Documents\CCTA-OS\lpc17xx.cmsis.driver.library\Debug\liblpc17xx.cmsis.driver.library.a(lpc17xx_ssp.o)
 .text.SSP_SendData
                0x00000000       0x48 C:\Users\m.paffi.ATESISTEMI\Documents\CCTA-OS\lpc17xx.cmsis.driver.library\Debug\liblpc17xx.cmsis.driver.library.a(lpc17xx_ssp.o)
 .text.SSP_ReceiveData
                0x00000000       0x44 C:\Users\m.paffi.ATESISTEMI\Documents\CCTA-OS\lpc17xx.cmsis.driver.library\Debug\liblpc17xx.cmsis.driver.library.a(lpc17xx_ssp.o)
 .text.SSP_ReadWrite
                0x00000000      0x390 C:\Users\m.paffi.ATESISTEMI\Documents\CCTA-OS\lpc17xx.cmsis.driver.library\Debug\liblpc17xx.cmsis.driver.library.a(lpc17xx_ssp.o)
 .text.SSP_GetStatus
                0x00000000       0x84 C:\Users\m.paffi.ATESISTEMI\Documents\CCTA-OS\lpc17xx.cmsis.driver.library\Debug\liblpc17xx.cmsis.driver.library.a(lpc17xx_ssp.o)
 .text.SSP_IntConfig
                0x00000000       0x70 C:\Users\m.paffi.ATESISTEMI\Documents\CCTA-OS\lpc17xx.cmsis.driver.library\Debug\liblpc17xx.cmsis.driver.library.a(lpc17xx_ssp.o)
 .text.SSP_GetRawIntStatus
                0x00000000       0x80 C:\Users\m.paffi.ATESISTEMI\Documents\CCTA-OS\lpc17xx.cmsis.driver.library\Debug\liblpc17xx.cmsis.driver.library.a(lpc17xx_ssp.o)
 .text.SSP_GetRawIntStatusReg
                0x00000000       0x44 C:\Users\m.paffi.ATESISTEMI\Documents\CCTA-OS\lpc17xx.cmsis.driver.library\Debug\liblpc17xx.cmsis.driver.library.a(lpc17xx_ssp.o)
 .text.SSP_GetIntStatus
                0x00000000       0x80 C:\Users\m.paffi.ATESISTEMI\Documents\CCTA-OS\lpc17xx.cmsis.driver.library\Debug\liblpc17xx.cmsis.driver.library.a(lpc17xx_ssp.o)
 .text.SSP_ClearIntPending
                0x00000000       0x60 C:\Users\m.paffi.ATESISTEMI\Documents\CCTA-OS\lpc17xx.cmsis.driver.library\Debug\liblpc17xx.cmsis.driver.library.a(lpc17xx_ssp.o)
 .text.SSP_DMACmd
                0x00000000       0xa8 C:\Users\m.paffi.ATESISTEMI\Documents\CCTA-OS\lpc17xx.cmsis.driver.library\Debug\liblpc17xx.cmsis.driver.library.a(lpc17xx_ssp.o)
 .text          0x00000000        0x0 C:\Users\m.paffi.ATESISTEMI\Documents\CCTA-OS\lpc17xx.cmsis.driver.library\Debug\liblpc17xx.cmsis.driver.library.a(lpc17xx_uart.o)
 .data          0x00000000        0x0 C:\Users\m.paffi.ATESISTEMI\Documents\CCTA-OS\lpc17xx.cmsis.driver.library\Debug\liblpc17xx.cmsis.driver.library.a(lpc17xx_uart.o)
 .bss           0x00000000        0x0 C:\Users\m.paffi.ATESISTEMI\Documents\CCTA-OS\lpc17xx.cmsis.driver.library\Debug\liblpc17xx.cmsis.driver.library.a(lpc17xx_uart.o)
 .text.uart_set_divisors
                0x00000000      0x26c C:\Users\m.paffi.ATESISTEMI\Documents\CCTA-OS\lpc17xx.cmsis.driver.library\Debug\liblpc17xx.cmsis.driver.library.a(lpc17xx_uart.o)
 .rodata        0x00000000       0x1c C:\Users\m.paffi.ATESISTEMI\Documents\CCTA-OS\lpc17xx.cmsis.driver.library\Debug\liblpc17xx.cmsis.driver.library.a(lpc17xx_uart.o)
 .text.UART_Init
                0x00000000      0x368 C:\Users\m.paffi.ATESISTEMI\Documents\CCTA-OS\lpc17xx.cmsis.driver.library\Debug\liblpc17xx.cmsis.driver.library.a(lpc17xx_uart.o)
 .text.UART_DeInit
                0x00000000       0xcc C:\Users\m.paffi.ATESISTEMI\Documents\CCTA-OS\lpc17xx.cmsis.driver.library\Debug\liblpc17xx.cmsis.driver.library.a(lpc17xx_uart.o)
 .text.UART_ConfigStructInit
                0x00000000       0x34 C:\Users\m.paffi.ATESISTEMI\Documents\CCTA-OS\lpc17xx.cmsis.driver.library\Debug\liblpc17xx.cmsis.driver.library.a(lpc17xx_uart.o)
 .text.UART_SendByte
                0x00000000       0x78 C:\Users\m.paffi.ATESISTEMI\Documents\CCTA-OS\lpc17xx.cmsis.driver.library\Debug\liblpc17xx.cmsis.driver.library.a(lpc17xx_uart.o)
 .text.UART_ReceiveByte
                0x00000000       0x78 C:\Users\m.paffi.ATESISTEMI\Documents\CCTA-OS\lpc17xx.cmsis.driver.library\Debug\liblpc17xx.cmsis.driver.library.a(lpc17xx_uart.o)
 .text.UART_Send
                0x00000000      0x10c C:\Users\m.paffi.ATESISTEMI\Documents\CCTA-OS\lpc17xx.cmsis.driver.library\Debug\liblpc17xx.cmsis.driver.library.a(lpc17xx_uart.o)
 .text.UART_Receive
                0x00000000       0xd8 C:\Users\m.paffi.ATESISTEMI\Documents\CCTA-OS\lpc17xx.cmsis.driver.library\Debug\liblpc17xx.cmsis.driver.library.a(lpc17xx_uart.o)
 .text.UART_ForceBreak
                0x00000000       0x88 C:\Users\m.paffi.ATESISTEMI\Documents\CCTA-OS\lpc17xx.cmsis.driver.library\Debug\liblpc17xx.cmsis.driver.library.a(lpc17xx_uart.o)
 .text.UART_IntConfig
                0x00000000      0x1d0 C:\Users\m.paffi.ATESISTEMI\Documents\CCTA-OS\lpc17xx.cmsis.driver.library\Debug\liblpc17xx.cmsis.driver.library.a(lpc17xx_uart.o)
 .text.UART_GetLineStatus
                0x00000000       0x7c C:\Users\m.paffi.ATESISTEMI\Documents\CCTA-OS\lpc17xx.cmsis.driver.library\Debug\liblpc17xx.cmsis.driver.library.a(lpc17xx_uart.o)
 .text.UART_GetIntId
                0x00000000       0x68 C:\Users\m.paffi.ATESISTEMI\Documents\CCTA-OS\lpc17xx.cmsis.driver.library\Debug\liblpc17xx.cmsis.driver.library.a(lpc17xx_uart.o)
 .text.UART_CheckBusy
                0x00000000       0x2c C:\Users\m.paffi.ATESISTEMI\Documents\CCTA-OS\lpc17xx.cmsis.driver.library\Debug\liblpc17xx.cmsis.driver.library.a(lpc17xx_uart.o)
 .text.UART_FIFOConfig
                0x00000000      0x184 C:\Users\m.paffi.ATESISTEMI\Documents\CCTA-OS\lpc17xx.cmsis.driver.library\Debug\liblpc17xx.cmsis.driver.library.a(lpc17xx_uart.o)
 .text.UART_FIFOConfigStructInit
                0x00000000       0x34 C:\Users\m.paffi.ATESISTEMI\Documents\CCTA-OS\lpc17xx.cmsis.driver.library\Debug\liblpc17xx.cmsis.driver.library.a(lpc17xx_uart.o)
 .text.UART_ABCmd
                0x00000000      0x15c C:\Users\m.paffi.ATESISTEMI\Documents\CCTA-OS\lpc17xx.cmsis.driver.library\Debug\liblpc17xx.cmsis.driver.library.a(lpc17xx_uart.o)
 .text.UART_ABClearIntPending
                0x00000000       0x88 C:\Users\m.paffi.ATESISTEMI\Documents\CCTA-OS\lpc17xx.cmsis.driver.library\Debug\liblpc17xx.cmsis.driver.library.a(lpc17xx_uart.o)
 .text.UART_TxCmd
                0x00000000       0xe8 C:\Users\m.paffi.ATESISTEMI\Documents\CCTA-OS\lpc17xx.cmsis.driver.library\Debug\liblpc17xx.cmsis.driver.library.a(lpc17xx_uart.o)
 .text.UART_IrDAInvtInputCmd
                0x00000000       0x84 C:\Users\m.paffi.ATESISTEMI\Documents\CCTA-OS\lpc17xx.cmsis.driver.library\Debug\liblpc17xx.cmsis.driver.library.a(lpc17xx_uart.o)
 .text.UART_IrDACmd
                0x00000000       0x80 C:\Users\m.paffi.ATESISTEMI\Documents\CCTA-OS\lpc17xx.cmsis.driver.library\Debug\liblpc17xx.cmsis.driver.library.a(lpc17xx_uart.o)
 .text.UART_IrDAPulseDivConfig
                0x00000000       0xac C:\Users\m.paffi.ATESISTEMI\Documents\CCTA-OS\lpc17xx.cmsis.driver.library\Debug\liblpc17xx.cmsis.driver.library.a(lpc17xx_uart.o)
 .text.UART_FullModemForcePinState
                0x00000000       0xcc C:\Users\m.paffi.ATESISTEMI\Documents\CCTA-OS\lpc17xx.cmsis.driver.library\Debug\liblpc17xx.cmsis.driver.library.a(lpc17xx_uart.o)
 .text.UART_FullModemConfigMode
                0x00000000       0xd8 C:\Users\m.paffi.ATESISTEMI\Documents\CCTA-OS\lpc17xx.cmsis.driver.library\Debug\liblpc17xx.cmsis.driver.library.a(lpc17xx_uart.o)
 .text.UART_FullModemGetStatus
                0x00000000       0x38 C:\Users\m.paffi.ATESISTEMI\Documents\CCTA-OS\lpc17xx.cmsis.driver.library\Debug\liblpc17xx.cmsis.driver.library.a(lpc17xx_uart.o)
 .text.UART_RS485Config
                0x00000000      0x1bc C:\Users\m.paffi.ATESISTEMI\Documents\CCTA-OS\lpc17xx.cmsis.driver.library\Debug\liblpc17xx.cmsis.driver.library.a(lpc17xx_uart.o)
 .text.UART_RS485ReceiverCmd
                0x00000000       0x48 C:\Users\m.paffi.ATESISTEMI\Documents\CCTA-OS\lpc17xx.cmsis.driver.library\Debug\liblpc17xx.cmsis.driver.library.a(lpc17xx_uart.o)
 .text.UART_RS485Send
                0x00000000       0x84 C:\Users\m.paffi.ATESISTEMI\Documents\CCTA-OS\lpc17xx.cmsis.driver.library\Debug\liblpc17xx.cmsis.driver.library.a(lpc17xx_uart.o)
 .text.UART_RS485SendSlvAddr
                0x00000000       0x28 C:\Users\m.paffi.ATESISTEMI\Documents\CCTA-OS\lpc17xx.cmsis.driver.library\Debug\liblpc17xx.cmsis.driver.library.a(lpc17xx_uart.o)
 .text.UART_RS485SendData
                0x00000000       0x28 C:\Users\m.paffi.ATESISTEMI\Documents\CCTA-OS\lpc17xx.cmsis.driver.library\Debug\liblpc17xx.cmsis.driver.library.a(lpc17xx_uart.o)
 .text          0x00000000        0x0 C:\Users\m.paffi.ATESISTEMI\Documents\CCTA-OS\lpc17xx.cmsis.driver.library\Debug\liblpc17xx.cmsis.driver.library.a(lpc17xx_clkpwr.o)
 .data          0x00000000        0x0 C:\Users\m.paffi.ATESISTEMI\Documents\CCTA-OS\lpc17xx.cmsis.driver.library\Debug\liblpc17xx.cmsis.driver.library.a(lpc17xx_clkpwr.o)
 .bss           0x00000000        0x0 C:\Users\m.paffi.ATESISTEMI\Documents\CCTA-OS\lpc17xx.cmsis.driver.library\Debug\liblpc17xx.cmsis.driver.library.a(lpc17xx_clkpwr.o)
 .text.CLKPWR_SetPCLKDiv
                0x00000000       0xd4 C:\Users\m.paffi.ATESISTEMI\Documents\CCTA-OS\lpc17xx.cmsis.driver.library\Debug\liblpc17xx.cmsis.driver.library.a(lpc17xx_clkpwr.o)
 .text.CLKPWR_GetPCLKSEL
                0x00000000       0x54 C:\Users\m.paffi.ATESISTEMI\Documents\CCTA-OS\lpc17xx.cmsis.driver.library\Debug\liblpc17xx.cmsis.driver.library.a(lpc17xx_clkpwr.o)
 .text.CLKPWR_GetPCLK
                0x00000000       0x70 C:\Users\m.paffi.ATESISTEMI\Documents\CCTA-OS\lpc17xx.cmsis.driver.library\Debug\liblpc17xx.cmsis.driver.library.a(lpc17xx_clkpwr.o)
 .text.CLKPWR_Sleep
                0x00000000       0x1c C:\Users\m.paffi.ATESISTEMI\Documents\CCTA-OS\lpc17xx.cmsis.driver.library\Debug\liblpc17xx.cmsis.driver.library.a(lpc17xx_clkpwr.o)
 .text.CLKPWR_DeepSleep
                0x00000000       0x2c C:\Users\m.paffi.ATESISTEMI\Documents\CCTA-OS\lpc17xx.cmsis.driver.library\Debug\liblpc17xx.cmsis.driver.library.a(lpc17xx_clkpwr.o)
 .text.CLKPWR_PowerDown
                0x00000000       0x2c C:\Users\m.paffi.ATESISTEMI\Documents\CCTA-OS\lpc17xx.cmsis.driver.library\Debug\liblpc17xx.cmsis.driver.library.a(lpc17xx_clkpwr.o)
 .text.CLKPWR_DeepPowerDown
                0x00000000       0x2c C:\Users\m.paffi.ATESISTEMI\Documents\CCTA-OS\lpc17xx.cmsis.driver.library\Debug\liblpc17xx.cmsis.driver.library.a(lpc17xx_clkpwr.o)
 .text          0x00000000        0x0 C:\Users\m.paffi.ATESISTEMI\Documents\CCTA-OS\CMSISv2p00_LPC17xx\Debug\libCMSISv2p00_LPC17xx.a(system_LPC17xx.o)
 .data          0x00000000        0x0 C:\Users\m.paffi.ATESISTEMI\Documents\CCTA-OS\CMSISv2p00_LPC17xx\Debug\libCMSISv2p00_LPC17xx.a(system_LPC17xx.o)
 .bss           0x00000000        0x0 C:\Users\m.paffi.ATESISTEMI\Documents\CCTA-OS\CMSISv2p00_LPC17xx\Debug\libCMSISv2p00_LPC17xx.a(system_LPC17xx.o)
 .text.SystemCoreClockUpdate
                0x00000000       0xf0 C:\Users\m.paffi.ATESISTEMI\Documents\CCTA-OS\CMSISv2p00_LPC17xx\Debug\libCMSISv2p00_LPC17xx.a(system_LPC17xx.o)
 .text          0x00000000        0x0 c:/code_red/redsuitenxp_4.0.6_249/redsuite/tools/bin/../lib/gcc/arm-none-eabi/4.5.1/../../../../arm-none-eabi/lib/thumb2\libcr_nohost.a(_cr__main.o)
 .data          0x00000000        0x0 c:/code_red/redsuitenxp_4.0.6_249/redsuite/tools/bin/../lib/gcc/arm-none-eabi/4.5.1/../../../../arm-none-eabi/lib/thumb2\libcr_nohost.a(_cr__main.o)
 .bss           0x00000000        0x0 c:/code_red/redsuitenxp_4.0.6_249/redsuite/tools/bin/../lib/gcc/arm-none-eabi/4.5.1/../../../../arm-none-eabi/lib/thumb2\libcr_nohost.a(_cr__main.o)
 .text          0x00000000        0x0 c:/code_red/redsuitenxp_4.0.6_249/redsuite/tools/bin/../lib/gcc/arm-none-eabi/4.5.1/../../../../arm-none-eabi/lib/thumb2\libcr_c.a(fflush.o)
 .data          0x00000000        0x0 c:/code_red/redsuitenxp_4.0.6_249/redsuite/tools/bin/../lib/gcc/arm-none-eabi/4.5.1/../../../../arm-none-eabi/lib/thumb2\libcr_c.a(fflush.o)
 .bss           0x00000000        0x0 c:/code_red/redsuitenxp_4.0.6_249/redsuite/tools/bin/../lib/gcc/arm-none-eabi/4.5.1/../../../../arm-none-eabi/lib/thumb2\libcr_c.a(fflush.o)
 .text          0x00000000        0x0 c:/code_red/redsuitenxp_4.0.6_249/redsuite/tools/bin/../lib/gcc/arm-none-eabi/4.5.1/../../../../arm-none-eabi/lib/thumb2\libcr_c.a(initio.o)
 .data          0x00000000        0x0 c:/code_red/redsuitenxp_4.0.6_249/redsuite/tools/bin/../lib/gcc/arm-none-eabi/4.5.1/../../../../arm-none-eabi/lib/thumb2\libcr_c.a(initio.o)
 .bss           0x00000000        0x0 c:/code_red/redsuitenxp_4.0.6_249/redsuite/tools/bin/../lib/gcc/arm-none-eabi/4.5.1/../../../../arm-none-eabi/lib/thumb2\libcr_c.a(initio.o)
 .text          0x00000000        0x0 c:/code_red/redsuitenxp_4.0.6_249/redsuite/tools/bin/../lib/gcc/arm-none-eabi/4.5.1/../../../../arm-none-eabi/lib/thumb2\libcr_c.a(memcmp.o)
 .data          0x00000000        0x0 c:/code_red/redsuitenxp_4.0.6_249/redsuite/tools/bin/../lib/gcc/arm-none-eabi/4.5.1/../../../../arm-none-eabi/lib/thumb2\libcr_c.a(memcmp.o)
 .bss           0x00000000        0x0 c:/code_red/redsuitenxp_4.0.6_249/redsuite/tools/bin/../lib/gcc/arm-none-eabi/4.5.1/../../../../arm-none-eabi/lib/thumb2\libcr_c.a(memcmp.o)
 .text          0x00000000        0x0 c:/code_red/redsuitenxp_4.0.6_249/redsuite/tools/bin/../lib/gcc/arm-none-eabi/4.5.1/../../../../arm-none-eabi/lib/thumb2\libcr_c.a(setvbuf.o)
 .data          0x00000000        0x0 c:/code_red/redsuitenxp_4.0.6_249/redsuite/tools/bin/../lib/gcc/arm-none-eabi/4.5.1/../../../../arm-none-eabi/lib/thumb2\libcr_c.a(setvbuf.o)
 .bss           0x00000000        0x0 c:/code_red/redsuitenxp_4.0.6_249/redsuite/tools/bin/../lib/gcc/arm-none-eabi/4.5.1/../../../../arm-none-eabi/lib/thumb2\libcr_c.a(setvbuf.o)
 .text          0x00000000        0x0 c:/code_red/redsuitenxp_4.0.6_249/redsuite/tools/bin/../lib/gcc/arm-none-eabi/4.5.1/../../../../arm-none-eabi/lib/thumb2\libcr_c.a(stdio.o)
 .data          0x00000000        0x0 c:/code_red/redsuitenxp_4.0.6_249/redsuite/tools/bin/../lib/gcc/arm-none-eabi/4.5.1/../../../../arm-none-eabi/lib/thumb2\libcr_c.a(stdio.o)
 .bss           0x00000000        0x0 c:/code_red/redsuitenxp_4.0.6_249/redsuite/tools/bin/../lib/gcc/arm-none-eabi/4.5.1/../../../../arm-none-eabi/lib/thumb2\libcr_c.a(stdio.o)
 .text.fgetc    0x00000000       0x1a c:/code_red/redsuitenxp_4.0.6_249/redsuite/tools/bin/../lib/gcc/arm-none-eabi/4.5.1/../../../../arm-none-eabi/lib/thumb2\libcr_c.a(stdio.o)
 .text.fputc    0x00000000       0x22 c:/code_red/redsuitenxp_4.0.6_249/redsuite/tools/bin/../lib/gcc/arm-none-eabi/4.5.1/../../../../arm-none-eabi/lib/thumb2\libcr_c.a(stdio.o)
 .text.getc     0x00000000       0x1a c:/code_red/redsuitenxp_4.0.6_249/redsuite/tools/bin/../lib/gcc/arm-none-eabi/4.5.1/../../../../arm-none-eabi/lib/thumb2\libcr_c.a(stdio.o)
 .text.getchar  0x00000000       0x20 c:/code_red/redsuitenxp_4.0.6_249/redsuite/tools/bin/../lib/gcc/arm-none-eabi/4.5.1/../../../../arm-none-eabi/lib/thumb2\libcr_c.a(stdio.o)
 .text.putc     0x00000000       0x22 c:/code_red/redsuitenxp_4.0.6_249/redsuite/tools/bin/../lib/gcc/arm-none-eabi/4.5.1/../../../../arm-none-eabi/lib/thumb2\libcr_c.a(stdio.o)
 .text.putchar  0x00000000       0x24 c:/code_red/redsuitenxp_4.0.6_249/redsuite/tools/bin/../lib/gcc/arm-none-eabi/4.5.1/../../../../arm-none-eabi/lib/thumb2\libcr_c.a(stdio.o)
 .text.feof     0x00000000        0x8 c:/code_red/redsuitenxp_4.0.6_249/redsuite/tools/bin/../lib/gcc/arm-none-eabi/4.5.1/../../../../arm-none-eabi/lib/thumb2\libcr_c.a(stdio.o)
 .text.ferror   0x00000000        0x8 c:/code_red/redsuitenxp_4.0.6_249/redsuite/tools/bin/../lib/gcc/arm-none-eabi/4.5.1/../../../../arm-none-eabi/lib/thumb2\libcr_c.a(stdio.o)
 .text.clearerr
                0x00000000        0xe c:/code_red/redsuitenxp_4.0.6_249/redsuite/tools/bin/../lib/gcc/arm-none-eabi/4.5.1/../../../../arm-none-eabi/lib/thumb2\libcr_c.a(stdio.o)
 .text          0x00000000        0x0 c:/code_red/redsuitenxp_4.0.6_249/redsuite/tools/bin/../lib/gcc/arm-none-eabi/4.5.1/../../../../arm-none-eabi/lib/thumb2\libcr_c.a(stdlib.o)
 .data          0x00000000        0x0 c:/code_red/redsuitenxp_4.0.6_249/redsuite/tools/bin/../lib/gcc/arm-none-eabi/4.5.1/../../../../arm-none-eabi/lib/thumb2\libcr_c.a(stdlib.o)
 .bss           0x00000000        0x0 c:/code_red/redsuitenxp_4.0.6_249/redsuite/tools/bin/../lib/gcc/arm-none-eabi/4.5.1/../../../../arm-none-eabi/lib/thumb2\libcr_c.a(stdlib.o)
 .text.__rand   0x00000000       0x20 c:/code_red/redsuitenxp_4.0.6_249/redsuite/tools/bin/../lib/gcc/arm-none-eabi/4.5.1/../../../../arm-none-eabi/lib/thumb2\libcr_c.a(stdlib.o)
 .text.__srand  0x00000000        0xc c:/code_red/redsuitenxp_4.0.6_249/redsuite/tools/bin/../lib/gcc/arm-none-eabi/4.5.1/../../../../arm-none-eabi/lib/thumb2\libcr_c.a(stdlib.o)
 .text.rand     0x00000000       0x3c c:/code_red/redsuitenxp_4.0.6_249/redsuite/tools/bin/../lib/gcc/arm-none-eabi/4.5.1/../../../../arm-none-eabi/lib/thumb2\libcr_c.a(stdlib.o)
 .text.srand    0x00000000       0x3c c:/code_red/redsuitenxp_4.0.6_249/redsuite/tools/bin/../lib/gcc/arm-none-eabi/4.5.1/../../../../arm-none-eabi/lib/thumb2\libcr_c.a(stdlib.o)
 .text._exit_init
                0x00000000        0xc c:/code_red/redsuitenxp_4.0.6_249/redsuite/tools/bin/../lib/gcc/arm-none-eabi/4.5.1/../../../../arm-none-eabi/lib/thumb2\libcr_c.a(stdlib.o)
 .text.atexit   0x00000000       0x24 c:/code_red/redsuitenxp_4.0.6_249/redsuite/tools/bin/../lib/gcc/arm-none-eabi/4.5.1/../../../../arm-none-eabi/lib/thumb2\libcr_c.a(stdlib.o)
 .text.abs      0x00000000        0x8 c:/code_red/redsuitenxp_4.0.6_249/redsuite/tools/bin/../lib/gcc/arm-none-eabi/4.5.1/../../../../arm-none-eabi/lib/thumb2\libcr_c.a(stdlib.o)
 .text.labs     0x00000000        0x8 c:/code_red/redsuitenxp_4.0.6_249/redsuite/tools/bin/../lib/gcc/arm-none-eabi/4.5.1/../../../../arm-none-eabi/lib/thumb2\libcr_c.a(stdlib.o)
 .text.div      0x00000000       0x10 c:/code_red/redsuitenxp_4.0.6_249/redsuite/tools/bin/../lib/gcc/arm-none-eabi/4.5.1/../../../../arm-none-eabi/lib/thumb2\libcr_c.a(stdlib.o)
 .text.ldiv     0x00000000       0x10 c:/code_red/redsuitenxp_4.0.6_249/redsuite/tools/bin/../lib/gcc/arm-none-eabi/4.5.1/../../../../arm-none-eabi/lib/thumb2\libcr_c.a(stdlib.o)
 .data.next     0x00000000        0x4 c:/code_red/redsuitenxp_4.0.6_249/redsuite/tools/bin/../lib/gcc/arm-none-eabi/4.5.1/../../../../arm-none-eabi/lib/thumb2\libcr_c.a(stdlib.o)
 .data._random_number_seed
                0x00000000       0xdc c:/code_red/redsuitenxp_4.0.6_249/redsuite/tools/bin/../lib/gcc/arm-none-eabi/4.5.1/../../../../arm-none-eabi/lib/thumb2\libcr_c.a(stdlib.o)
 .data._random_j
                0x00000000        0x4 c:/code_red/redsuitenxp_4.0.6_249/redsuite/tools/bin/../lib/gcc/arm-none-eabi/4.5.1/../../../../arm-none-eabi/lib/thumb2\libcr_c.a(stdlib.o)
 .data._random_k
                0x00000000        0x4 c:/code_red/redsuitenxp_4.0.6_249/redsuite/tools/bin/../lib/gcc/arm-none-eabi/4.5.1/../../../../arm-none-eabi/lib/thumb2\libcr_c.a(stdlib.o)
 .text          0x00000000        0x0 c:/code_red/redsuitenxp_4.0.6_249/redsuite/tools/bin/../lib/gcc/arm-none-eabi/4.5.1/../../../../arm-none-eabi/lib/thumb2\libcr_c.a(strcat.o)
 .data          0x00000000        0x0 c:/code_red/redsuitenxp_4.0.6_249/redsuite/tools/bin/../lib/gcc/arm-none-eabi/4.5.1/../../../../arm-none-eabi/lib/thumb2\libcr_c.a(strcat.o)
 .bss           0x00000000        0x0 c:/code_red/redsuitenxp_4.0.6_249/redsuite/tools/bin/../lib/gcc/arm-none-eabi/4.5.1/../../../../arm-none-eabi/lib/thumb2\libcr_c.a(strcat.o)
 .text          0x00000000        0x0 c:/code_red/redsuitenxp_4.0.6_249/redsuite/tools/bin/../lib/gcc/arm-none-eabi/4.5.1/../../../../arm-none-eabi/lib/thumb2\libcr_c.a(strchr.o)
 .data          0x00000000        0x0 c:/code_red/redsuitenxp_4.0.6_249/redsuite/tools/bin/../lib/gcc/arm-none-eabi/4.5.1/../../../../arm-none-eabi/lib/thumb2\libcr_c.a(strchr.o)
 .bss           0x00000000        0x0 c:/code_red/redsuitenxp_4.0.6_249/redsuite/tools/bin/../lib/gcc/arm-none-eabi/4.5.1/../../../../arm-none-eabi/lib/thumb2\libcr_c.a(strchr.o)
 .text          0x00000000        0x0 c:/code_red/redsuitenxp_4.0.6_249/redsuite/tools/bin/../lib/gcc/arm-none-eabi/4.5.1/../../../../arm-none-eabi/lib/thumb2\libcr_c.a(strcmp.o)
 .data          0x00000000        0x0 c:/code_red/redsuitenxp_4.0.6_249/redsuite/tools/bin/../lib/gcc/arm-none-eabi/4.5.1/../../../../arm-none-eabi/lib/thumb2\libcr_c.a(strcmp.o)
 .bss           0x00000000        0x0 c:/code_red/redsuitenxp_4.0.6_249/redsuite/tools/bin/../lib/gcc/arm-none-eabi/4.5.1/../../../../arm-none-eabi/lib/thumb2\libcr_c.a(strcmp.o)
 .text          0x00000000        0x0 c:/code_red/redsuitenxp_4.0.6_249/redsuite/tools/bin/../lib/gcc/arm-none-eabi/4.5.1/../../../../arm-none-eabi/lib/thumb2\libcr_c.a(strcpy.o)
 .data          0x00000000        0x0 c:/code_red/redsuitenxp_4.0.6_249/redsuite/tools/bin/../lib/gcc/arm-none-eabi/4.5.1/../../../../arm-none-eabi/lib/thumb2\libcr_c.a(strcpy.o)
 .bss           0x00000000        0x0 c:/code_red/redsuitenxp_4.0.6_249/redsuite/tools/bin/../lib/gcc/arm-none-eabi/4.5.1/../../../../arm-none-eabi/lib/thumb2\libcr_c.a(strcpy.o)
 .text          0x00000000        0x0 c:/code_red/redsuitenxp_4.0.6_249/redsuite/tools/bin/../lib/gcc/arm-none-eabi/4.5.1/../../../../arm-none-eabi/lib/thumb2\libcr_c.a(strlen.o)
 .data          0x00000000        0x0 c:/code_red/redsuitenxp_4.0.6_249/redsuite/tools/bin/../lib/gcc/arm-none-eabi/4.5.1/../../../../arm-none-eabi/lib/thumb2\libcr_c.a(strlen.o)
 .bss           0x00000000        0x0 c:/code_red/redsuitenxp_4.0.6_249/redsuite/tools/bin/../lib/gcc/arm-none-eabi/4.5.1/../../../../arm-none-eabi/lib/thumb2\libcr_c.a(strlen.o)
 .text          0x00000000        0x0 c:/code_red/redsuitenxp_4.0.6_249/redsuite/tools/bin/../lib/gcc/arm-none-eabi/4.5.1/../../../../arm-none-eabi/lib/thumb2\libcr_c.a(strncmp.o)
 .data          0x00000000        0x0 c:/code_red/redsuitenxp_4.0.6_249/redsuite/tools/bin/../lib/gcc/arm-none-eabi/4.5.1/../../../../arm-none-eabi/lib/thumb2\libcr_c.a(strncmp.o)
 .bss           0x00000000        0x0 c:/code_red/redsuitenxp_4.0.6_249/redsuite/tools/bin/../lib/gcc/arm-none-eabi/4.5.1/../../../../arm-none-eabi/lib/thumb2\libcr_c.a(strncmp.o)
 .text          0x00000000        0x0 c:/code_red/redsuitenxp_4.0.6_249/redsuite/tools/bin/../lib/gcc/arm-none-eabi/4.5.1/../../../../arm-none-eabi/lib/thumb2\libcr_c.a(strncpy.o)
 .data          0x00000000        0x0 c:/code_red/redsuitenxp_4.0.6_249/redsuite/tools/bin/../lib/gcc/arm-none-eabi/4.5.1/../../../../arm-none-eabi/lib/thumb2\libcr_c.a(strncpy.o)
 .bss           0x00000000        0x0 c:/code_red/redsuitenxp_4.0.6_249/redsuite/tools/bin/../lib/gcc/arm-none-eabi/4.5.1/../../../../arm-none-eabi/lib/thumb2\libcr_c.a(strncpy.o)
 .text          0x00000000        0x0 c:/code_red/redsuitenxp_4.0.6_249/redsuite/tools/bin/../lib/gcc/arm-none-eabi/4.5.1/../../../../arm-none-eabi/lib/thumb2\libcr_c.a(strstr.o)
 .data          0x00000000        0x0 c:/code_red/redsuitenxp_4.0.6_249/redsuite/tools/bin/../lib/gcc/arm-none-eabi/4.5.1/../../../../arm-none-eabi/lib/thumb2\libcr_c.a(strstr.o)
 .bss           0x00000000        0x0 c:/code_red/redsuitenxp_4.0.6_249/redsuite/tools/bin/../lib/gcc/arm-none-eabi/4.5.1/../../../../arm-none-eabi/lib/thumb2\libcr_c.a(strstr.o)
 .text          0x00000000        0x0 c:/code_red/redsuitenxp_4.0.6_249/redsuite/tools/bin/../lib/gcc/arm-none-eabi/4.5.1/../../../../arm-none-eabi/lib/thumb2\libcr_c.a(memcpy.o)
 .data          0x00000000        0x0 c:/code_red/redsuitenxp_4.0.6_249/redsuite/tools/bin/../lib/gcc/arm-none-eabi/4.5.1/../../../../arm-none-eabi/lib/thumb2\libcr_c.a(memcpy.o)
 .bss           0x00000000        0x0 c:/code_red/redsuitenxp_4.0.6_249/redsuite/tools/bin/../lib/gcc/arm-none-eabi/4.5.1/../../../../arm-none-eabi/lib/thumb2\libcr_c.a(memcpy.o)
 .text          0x00000000        0x0 c:/code_red/redsuitenxp_4.0.6_249/redsuite/tools/bin/../lib/gcc/arm-none-eabi/4.5.1/../../../../arm-none-eabi/lib/thumb2\libcr_c.a(memset.o)
 .data          0x00000000        0x0 c:/code_red/redsuitenxp_4.0.6_249/redsuite/tools/bin/../lib/gcc/arm-none-eabi/4.5.1/../../../../arm-none-eabi/lib/thumb2\libcr_c.a(memset.o)
 .bss           0x00000000        0x0 c:/code_red/redsuitenxp_4.0.6_249/redsuite/tools/bin/../lib/gcc/arm-none-eabi/4.5.1/../../../../arm-none-eabi/lib/thumb2\libcr_c.a(memset.o)
 .text          0x00000000        0x0 c:/code_red/redsuitenxp_4.0.6_249/redsuite/tools/bin/../lib/gcc/arm-none-eabi/4.5.1/../../../../arm-none-eabi/lib/thumb2\libcr_c.a(__fillbuf.o)
 .data          0x00000000        0x0 c:/code_red/redsuitenxp_4.0.6_249/redsuite/tools/bin/../lib/gcc/arm-none-eabi/4.5.1/../../../../arm-none-eabi/lib/thumb2\libcr_c.a(__fillbuf.o)
 .bss           0x00000000        0x0 c:/code_red/redsuitenxp_4.0.6_249/redsuite/tools/bin/../lib/gcc/arm-none-eabi/4.5.1/../../../../arm-none-eabi/lib/thumb2\libcr_c.a(__fillbuf.o)
 .text._Csys_read_
                0x00000000       0x22 c:/code_red/redsuitenxp_4.0.6_249/redsuite/tools/bin/../lib/gcc/arm-none-eabi/4.5.1/../../../../arm-none-eabi/lib/thumb2\libcr_c.a(__fillbuf.o)
 .text.__filbuf
                0x00000000      0x190 c:/code_red/redsuitenxp_4.0.6_249/redsuite/tools/bin/../lib/gcc/arm-none-eabi/4.5.1/../../../../arm-none-eabi/lib/thumb2\libcr_c.a(__fillbuf.o)
 .text._fillb2  0x00000000       0x1e c:/code_red/redsuitenxp_4.0.6_249/redsuite/tools/bin/../lib/gcc/arm-none-eabi/4.5.1/../../../../arm-none-eabi/lib/thumb2\libcr_c.a(__fillbuf.o)
 .text          0x00000000        0x0 c:/code_red/redsuitenxp_4.0.6_249/redsuite/tools/bin/../lib/gcc/arm-none-eabi/4.5.1/../../../../arm-none-eabi/lib/thumb2\libcr_c.a(_deferredlazyseek.o)
 .data          0x00000000        0x0 c:/code_red/redsuitenxp_4.0.6_249/redsuite/tools/bin/../lib/gcc/arm-none-eabi/4.5.1/../../../../arm-none-eabi/lib/thumb2\libcr_c.a(_deferredlazyseek.o)
 .bss           0x00000000        0x0 c:/code_red/redsuitenxp_4.0.6_249/redsuite/tools/bin/../lib/gcc/arm-none-eabi/4.5.1/../../../../arm-none-eabi/lib/thumb2\libcr_c.a(_deferredlazyseek.o)
 .text.__flsbuf
                0x00000000      0x15e c:/code_red/redsuitenxp_4.0.6_249/redsuite/tools/bin/../lib/gcc/arm-none-eabi/4.5.1/../../../../arm-none-eabi/lib/thumb2\libcr_c.a(_deferredlazyseek.o)
 .text          0x00000000        0x0 c:/code_red/redsuitenxp_4.0.6_249/redsuite/tools/bin/../lib/gcc/arm-none-eabi/4.5.1/../../../../arm-none-eabi/lib/thumb2\libcr_c.a(_do_fflush.o)
 .data          0x00000000        0x0 c:/code_red/redsuitenxp_4.0.6_249/redsuite/tools/bin/../lib/gcc/arm-none-eabi/4.5.1/../../../../arm-none-eabi/lib/thumb2\libcr_c.a(_do_fflush.o)
 .bss           0x00000000        0x0 c:/code_red/redsuitenxp_4.0.6_249/redsuite/tools/bin/../lib/gcc/arm-none-eabi/4.5.1/../../../../arm-none-eabi/lib/thumb2\libcr_c.a(_do_fflush.o)
 .text          0x00000000        0x0 c:/code_red/redsuitenxp_4.0.6_249/redsuite/tools/bin/../lib/gcc/arm-none-eabi/4.5.1/../../../../arm-none-eabi/lib/thumb2\libcr_c.a(_fdopen.o)
 .data          0x00000000        0x0 c:/code_red/redsuitenxp_4.0.6_249/redsuite/tools/bin/../lib/gcc/arm-none-eabi/4.5.1/../../../../arm-none-eabi/lib/thumb2\libcr_c.a(_fdopen.o)
 .bss           0x00000000        0x0 c:/code_red/redsuitenxp_4.0.6_249/redsuite/tools/bin/../lib/gcc/arm-none-eabi/4.5.1/../../../../arm-none-eabi/lib/thumb2\libcr_c.a(_fdopen.o)
 .text          0x00000000        0x0 c:/code_red/redsuitenxp_4.0.6_249/redsuite/tools/bin/../lib/gcc/arm-none-eabi/4.5.1/../../../../arm-none-eabi/lib/thumb2\libcr_c.a(_fflush.o)
 .data          0x00000000        0x0 c:/code_red/redsuitenxp_4.0.6_249/redsuite/tools/bin/../lib/gcc/arm-none-eabi/4.5.1/../../../../arm-none-eabi/lib/thumb2\libcr_c.a(_fflush.o)
 .bss           0x00000000        0x0 c:/code_red/redsuitenxp_4.0.6_249/redsuite/tools/bin/../lib/gcc/arm-none-eabi/4.5.1/../../../../arm-none-eabi/lib/thumb2\libcr_c.a(_fflush.o)
 .text          0x00000000        0x0 c:/code_red/redsuitenxp_4.0.6_249/redsuite/tools/bin/../lib/gcc/arm-none-eabi/4.5.1/../../../../arm-none-eabi/lib/thumb2\libcr_c.a(_writebuf.o)
 .data          0x00000000        0x0 c:/code_red/redsuitenxp_4.0.6_249/redsuite/tools/bin/../lib/gcc/arm-none-eabi/4.5.1/../../../../arm-none-eabi/lib/thumb2\libcr_c.a(_writebuf.o)
 .bss           0x00000000        0x0 c:/code_red/redsuitenxp_4.0.6_249/redsuite/tools/bin/../lib/gcc/arm-none-eabi/4.5.1/../../../../arm-none-eabi/lib/thumb2\libcr_c.a(_writebuf.o)
 .text          0x00000000        0x0 c:/code_red/redsuitenxp_4.0.6_249/redsuite/tools/bin/../lib/gcc/arm-none-eabi/4.5.1/../../../../arm-none-eabi/lib/thumb2\libcr_c.a(alloc.o)
 .data          0x00000000        0x0 c:/code_red/redsuitenxp_4.0.6_249/redsuite/tools/bin/../lib/gcc/arm-none-eabi/4.5.1/../../../../arm-none-eabi/lib/thumb2\libcr_c.a(alloc.o)
 .bss           0x00000000        0x0 c:/code_red/redsuitenxp_4.0.6_249/redsuite/tools/bin/../lib/gcc/arm-none-eabi/4.5.1/../../../../arm-none-eabi/lib/thumb2\libcr_c.a(alloc.o)
 .text.calloc   0x00000000       0x50 c:/code_red/redsuitenxp_4.0.6_249/redsuite/tools/bin/../lib/gcc/arm-none-eabi/4.5.1/../../../../arm-none-eabi/lib/thumb2\libcr_c.a(alloc.o)
 .text.realloc  0x00000000       0x1c c:/code_red/redsuitenxp_4.0.6_249/redsuite/tools/bin/../lib/gcc/arm-none-eabi/4.5.1/../../../../arm-none-eabi/lib/thumb2\libcr_c.a(alloc.o)
 .text          0x00000000        0x0 c:/code_red/redsuitenxp_4.0.6_249/redsuite/tools/bin/../lib/gcc/arm-none-eabi/4.5.1/../../../../arm-none-eabi/lib/thumb2\libcr_c.a(fclose.o)
 .data          0x00000000        0x0 c:/code_red/redsuitenxp_4.0.6_249/redsuite/tools/bin/../lib/gcc/arm-none-eabi/4.5.1/../../../../arm-none-eabi/lib/thumb2\libcr_c.a(fclose.o)
 .bss           0x00000000        0x0 c:/code_red/redsuitenxp_4.0.6_249/redsuite/tools/bin/../lib/gcc/arm-none-eabi/4.5.1/../../../../arm-none-eabi/lib/thumb2\libcr_c.a(fclose.o)
 .text          0x00000000        0x0 c:/code_red/redsuitenxp_4.0.6_249/redsuite/tools/bin/../lib/gcc/arm-none-eabi/4.5.1/../../../../arm-none-eabi/lib/thumb2\libcr_c.a(fseek.o)
 .data          0x00000000        0x0 c:/code_red/redsuitenxp_4.0.6_249/redsuite/tools/bin/../lib/gcc/arm-none-eabi/4.5.1/../../../../arm-none-eabi/lib/thumb2\libcr_c.a(fseek.o)
 .bss           0x00000000        0x0 c:/code_red/redsuitenxp_4.0.6_249/redsuite/tools/bin/../lib/gcc/arm-none-eabi/4.5.1/../../../../arm-none-eabi/lib/thumb2\libcr_c.a(fseek.o)
 .text          0x00000000        0x0 c:/code_red/redsuitenxp_4.0.6_249/redsuite/tools/bin/../lib/gcc/arm-none-eabi/4.5.1/../../../../arm-none-eabi/lib/thumb2\libcr_c.a(ftell.o)
 .data          0x00000000        0x0 c:/code_red/redsuitenxp_4.0.6_249/redsuite/tools/bin/../lib/gcc/arm-none-eabi/4.5.1/../../../../arm-none-eabi/lib/thumb2\libcr_c.a(ftell.o)
 .bss           0x00000000        0x0 c:/code_red/redsuitenxp_4.0.6_249/redsuite/tools/bin/../lib/gcc/arm-none-eabi/4.5.1/../../../../arm-none-eabi/lib/thumb2\libcr_c.a(ftell.o)
 .text          0x00000000        0x0 c:/code_red/redsuitenxp_4.0.6_249/redsuite/tools/bin/../lib/gcc/arm-none-eabi/4.5.1/../../../../arm-none-eabi/lib/thumb2\libcr_c.a(raise.o)
 .data          0x00000000        0x0 c:/code_red/redsuitenxp_4.0.6_249/redsuite/tools/bin/../lib/gcc/arm-none-eabi/4.5.1/../../../../arm-none-eabi/lib/thumb2\libcr_c.a(raise.o)
 .bss           0x00000000        0x0 c:/code_red/redsuitenxp_4.0.6_249/redsuite/tools/bin/../lib/gcc/arm-none-eabi/4.5.1/../../../../arm-none-eabi/lib/thumb2\libcr_c.a(raise.o)
 .text          0x00000000        0x0 c:/code_red/redsuitenxp_4.0.6_249/redsuite/tools/bin/../lib/gcc/arm-none-eabi/4.5.1/../../../../arm-none-eabi/lib/thumb2\libcr_c.a(remove.o)
 .data          0x00000000        0x0 c:/code_red/redsuitenxp_4.0.6_249/redsuite/tools/bin/../lib/gcc/arm-none-eabi/4.5.1/../../../../arm-none-eabi/lib/thumb2\libcr_c.a(remove.o)
 .bss           0x00000000        0x0 c:/code_red/redsuitenxp_4.0.6_249/redsuite/tools/bin/../lib/gcc/arm-none-eabi/4.5.1/../../../../arm-none-eabi/lib/thumb2\libcr_c.a(remove.o)
 .text.rename   0x00000000       0x2a c:/code_red/redsuitenxp_4.0.6_249/redsuite/tools/bin/../lib/gcc/arm-none-eabi/4.5.1/../../../../arm-none-eabi/lib/thumb2\libcr_c.a(remove.o)
 .text          0x00000000        0x0 c:/code_red/redsuitenxp_4.0.6_249/redsuite/tools/bin/../lib/gcc/arm-none-eabi/4.5.1/../../../../arm-none-eabi/lib/thumb2\libcr_c.a(__init_alloc.o)
 .data          0x00000000        0x0 c:/code_red/redsuitenxp_4.0.6_249/redsuite/tools/bin/../lib/gcc/arm-none-eabi/4.5.1/../../../../arm-none-eabi/lib/thumb2\libcr_c.a(__init_alloc.o)
 .bss           0x00000000        0x0 c:/code_red/redsuitenxp_4.0.6_249/redsuite/tools/bin/../lib/gcc/arm-none-eabi/4.5.1/../../../../arm-none-eabi/lib/thumb2\libcr_c.a(__init_alloc.o)
 .text._init_alloc
                0x00000000       0x14 c:/code_red/redsuitenxp_4.0.6_249/redsuite/tools/bin/../lib/gcc/arm-none-eabi/4.5.1/../../../../arm-none-eabi/lib/thumb2\libcr_c.a(__init_alloc.o)
 .text          0x00000000        0x0 c:/code_red/redsuitenxp_4.0.6_249/redsuite/tools/bin/../lib/gcc/arm-none-eabi/4.5.1/../../../../arm-none-eabi/lib/thumb2\libcr_c.a(errno.o)
 .data          0x00000000        0x0 c:/code_red/redsuitenxp_4.0.6_249/redsuite/tools/bin/../lib/gcc/arm-none-eabi/4.5.1/../../../../arm-none-eabi/lib/thumb2\libcr_c.a(errno.o)
 .bss           0x00000000        0x0 c:/code_red/redsuitenxp_4.0.6_249/redsuite/tools/bin/../lib/gcc/arm-none-eabi/4.5.1/../../../../arm-none-eabi/lib/thumb2\libcr_c.a(errno.o)
 .text          0x00000000        0x0 c:/code_red/redsuitenxp_4.0.6_249/redsuite/tools/bin/../lib/gcc/arm-none-eabi/4.5.1/thumb2\libcr_eabihelpers.a(division.o)
 .data          0x00000000        0x0 c:/code_red/redsuitenxp_4.0.6_249/redsuite/tools/bin/../lib/gcc/arm-none-eabi/4.5.1/thumb2\libcr_eabihelpers.a(division.o)
 .bss           0x00000000        0x0 c:/code_red/redsuitenxp_4.0.6_249/redsuite/tools/bin/../lib/gcc/arm-none-eabi/4.5.1/thumb2\libcr_eabihelpers.a(division.o)
 .text.__aeabi_division_idiv
                0x00000000       0x10 c:/code_red/redsuitenxp_4.0.6_249/redsuite/tools/bin/../lib/gcc/arm-none-eabi/4.5.1/thumb2\libcr_eabihelpers.a(division.o)
 .text.__aeabi_division_idivmod
                0x00000000       0x16 c:/code_red/redsuitenxp_4.0.6_249/redsuite/tools/bin/../lib/gcc/arm-none-eabi/4.5.1/thumb2\libcr_eabihelpers.a(division.o)
 .text.__aeabi_division_uidiv
                0x00000000       0x10 c:/code_red/redsuitenxp_4.0.6_249/redsuite/tools/bin/../lib/gcc/arm-none-eabi/4.5.1/thumb2\libcr_eabihelpers.a(division.o)
 .text.__aeabi_division_uidivmod
                0x00000000       0x16 c:/code_red/redsuitenxp_4.0.6_249/redsuite/tools/bin/../lib/gcc/arm-none-eabi/4.5.1/thumb2\libcr_eabihelpers.a(division.o)
 .text.__aeabi_division_ldivmod
                0x00000000       0x26 c:/code_red/redsuitenxp_4.0.6_249/redsuite/tools/bin/../lib/gcc/arm-none-eabi/4.5.1/thumb2\libcr_eabihelpers.a(division.o)
 .text.__aeabi_division_uldivmod
                0x00000000      0x174 c:/code_red/redsuitenxp_4.0.6_249/redsuite/tools/bin/../lib/gcc/arm-none-eabi/4.5.1/thumb2\libcr_eabihelpers.a(division.o)
 .text.__aeabi_division_idiv0
                0x00000000        0x2 c:/code_red/redsuitenxp_4.0.6_249/redsuite/tools/bin/../lib/gcc/arm-none-eabi/4.5.1/thumb2\libcr_eabihelpers.a(division.o)
 .text.__aeabi_division_ldiv0
                0x00000000        0x2 c:/code_red/redsuitenxp_4.0.6_249/redsuite/tools/bin/../lib/gcc/arm-none-eabi/4.5.1/thumb2\libcr_eabihelpers.a(division.o)
 .text          0x00000000        0x0 c:/code_red/redsuitenxp_4.0.6_249/redsuite/tools/bin/../lib/gcc/arm-none-eabi/4.5.1/thumb2\libcr_eabihelpers.a(memcpy.o)
 .data          0x00000000        0x0 c:/code_red/redsuitenxp_4.0.6_249/redsuite/tools/bin/../lib/gcc/arm-none-eabi/4.5.1/thumb2\libcr_eabihelpers.a(memcpy.o)
 .bss           0x00000000        0x0 c:/code_red/redsuitenxp_4.0.6_249/redsuite/tools/bin/../lib/gcc/arm-none-eabi/4.5.1/thumb2\libcr_eabihelpers.a(memcpy.o)
 .text.__aeabi_memmove
                0x00000000       0x1c c:/code_red/redsuitenxp_4.0.6_249/redsuite/tools/bin/../lib/gcc/arm-none-eabi/4.5.1/thumb2\libcr_eabihelpers.a(memcpy.o)
 .text.__aeabi_memclr
                0x00000000        0x8 c:/code_red/redsuitenxp_4.0.6_249/redsuite/tools/bin/../lib/gcc/arm-none-eabi/4.5.1/thumb2\libcr_eabihelpers.a(memcpy.o)
 .text.__aeabi_memset
                0x00000000        0xa c:/code_red/redsuitenxp_4.0.6_249/redsuite/tools/bin/../lib/gcc/arm-none-eabi/4.5.1/thumb2\libcr_eabihelpers.a(memcpy.o)
 .text          0x00000000        0x0 c:/code_red/redsuitenxp_4.0.6_249/redsuite/tools/bin/../lib/gcc/arm-none-eabi/4.5.1/../../../../arm-none-eabi/lib/thumb2\libcr_nohost.a(__sys_appexit.o)
 .data          0x00000000        0x0 c:/code_red/redsuitenxp_4.0.6_249/redsuite/tools/bin/../lib/gcc/arm-none-eabi/4.5.1/../../../../arm-none-eabi/lib/thumb2\libcr_nohost.a(__sys_appexit.o)
 .bss           0x00000000        0x0 c:/code_red/redsuitenxp_4.0.6_249/redsuite/tools/bin/../lib/gcc/arm-none-eabi/4.5.1/../../../../arm-none-eabi/lib/thumb2\libcr_nohost.a(__sys_appexit.o)
 .text          0x00000000        0x0 c:/code_red/redsuitenxp_4.0.6_249/redsuite/tools/bin/../lib/gcc/arm-none-eabi/4.5.1/../../../../arm-none-eabi/lib/thumb2\libcr_nohost.a(__sys_close.o)
 .data          0x00000000        0x0 c:/code_red/redsuitenxp_4.0.6_249/redsuite/tools/bin/../lib/gcc/arm-none-eabi/4.5.1/../../../../arm-none-eabi/lib/thumb2\libcr_nohost.a(__sys_close.o)
 .bss           0x00000000        0x0 c:/code_red/redsuitenxp_4.0.6_249/redsuite/tools/bin/../lib/gcc/arm-none-eabi/4.5.1/../../../../arm-none-eabi/lib/thumb2\libcr_nohost.a(__sys_close.o)
 .text          0x00000000        0x0 c:/code_red/redsuitenxp_4.0.6_249/redsuite/tools/bin/../lib/gcc/arm-none-eabi/4.5.1/../../../../arm-none-eabi/lib/thumb2\libcr_nohost.a(__sys_flen.o)
 .data          0x00000000        0x0 c:/code_red/redsuitenxp_4.0.6_249/redsuite/tools/bin/../lib/gcc/arm-none-eabi/4.5.1/../../../../arm-none-eabi/lib/thumb2\libcr_nohost.a(__sys_flen.o)
 .bss           0x00000000        0x0 c:/code_red/redsuitenxp_4.0.6_249/redsuite/tools/bin/../lib/gcc/arm-none-eabi/4.5.1/../../../../arm-none-eabi/lib/thumb2\libcr_nohost.a(__sys_flen.o)
 .text          0x00000000        0x0 c:/code_red/redsuitenxp_4.0.6_249/redsuite/tools/bin/../lib/gcc/arm-none-eabi/4.5.1/../../../../arm-none-eabi/lib/thumb2\libcr_nohost.a(__sys_istty.o)
 .data          0x00000000        0x0 c:/code_red/redsuitenxp_4.0.6_249/redsuite/tools/bin/../lib/gcc/arm-none-eabi/4.5.1/../../../../arm-none-eabi/lib/thumb2\libcr_nohost.a(__sys_istty.o)
 .bss           0x00000000        0x0 c:/code_red/redsuitenxp_4.0.6_249/redsuite/tools/bin/../lib/gcc/arm-none-eabi/4.5.1/../../../../arm-none-eabi/lib/thumb2\libcr_nohost.a(__sys_istty.o)
 .text          0x00000000        0x0 c:/code_red/redsuitenxp_4.0.6_249/redsuite/tools/bin/../lib/gcc/arm-none-eabi/4.5.1/../../../../arm-none-eabi/lib/thumb2\libcr_nohost.a(__sys_read.o)
 .data          0x00000000        0x0 c:/code_red/redsuitenxp_4.0.6_249/redsuite/tools/bin/../lib/gcc/arm-none-eabi/4.5.1/../../../../arm-none-eabi/lib/thumb2\libcr_nohost.a(__sys_read.o)
 .bss           0x00000000        0x0 c:/code_red/redsuitenxp_4.0.6_249/redsuite/tools/bin/../lib/gcc/arm-none-eabi/4.5.1/../../../../arm-none-eabi/lib/thumb2\libcr_nohost.a(__sys_read.o)
 .text.__sys_read
                0x00000000        0x4 c:/code_red/redsuitenxp_4.0.6_249/redsuite/tools/bin/../lib/gcc/arm-none-eabi/4.5.1/../../../../arm-none-eabi/lib/thumb2\libcr_nohost.a(__sys_read.o)
 .text          0x00000000        0x0 c:/code_red/redsuitenxp_4.0.6_249/redsuite/tools/bin/../lib/gcc/arm-none-eabi/4.5.1/../../../../arm-none-eabi/lib/thumb2\libcr_nohost.a(__sys_readc.o)
 .data          0x00000000        0x0 c:/code_red/redsuitenxp_4.0.6_249/redsuite/tools/bin/../lib/gcc/arm-none-eabi/4.5.1/../../../../arm-none-eabi/lib/thumb2\libcr_nohost.a(__sys_readc.o)
 .bss           0x00000000        0x0 c:/code_red/redsuitenxp_4.0.6_249/redsuite/tools/bin/../lib/gcc/arm-none-eabi/4.5.1/../../../../arm-none-eabi/lib/thumb2\libcr_nohost.a(__sys_readc.o)
 .text.__sys_readc
                0x00000000        0x6 c:/code_red/redsuitenxp_4.0.6_249/redsuite/tools/bin/../lib/gcc/arm-none-eabi/4.5.1/../../../../arm-none-eabi/lib/thumb2\libcr_nohost.a(__sys_readc.o)
 .text          0x00000000        0x0 c:/code_red/redsuitenxp_4.0.6_249/redsuite/tools/bin/../lib/gcc/arm-none-eabi/4.5.1/../../../../arm-none-eabi/lib/thumb2\libcr_nohost.a(__sys_remove.o)
 .data          0x00000000        0x0 c:/code_red/redsuitenxp_4.0.6_249/redsuite/tools/bin/../lib/gcc/arm-none-eabi/4.5.1/../../../../arm-none-eabi/lib/thumb2\libcr_nohost.a(__sys_remove.o)
 .bss           0x00000000        0x0 c:/code_red/redsuitenxp_4.0.6_249/redsuite/tools/bin/../lib/gcc/arm-none-eabi/4.5.1/../../../../arm-none-eabi/lib/thumb2\libcr_nohost.a(__sys_remove.o)
 .text          0x00000000        0x0 c:/code_red/redsuitenxp_4.0.6_249/redsuite/tools/bin/../lib/gcc/arm-none-eabi/4.5.1/../../../../arm-none-eabi/lib/thumb2\libcr_nohost.a(__sys_rename.o)
 .data          0x00000000        0x0 c:/code_red/redsuitenxp_4.0.6_249/redsuite/tools/bin/../lib/gcc/arm-none-eabi/4.5.1/../../../../arm-none-eabi/lib/thumb2\libcr_nohost.a(__sys_rename.o)
 .bss           0x00000000        0x0 c:/code_red/redsuitenxp_4.0.6_249/redsuite/tools/bin/../lib/gcc/arm-none-eabi/4.5.1/../../../../arm-none-eabi/lib/thumb2\libcr_nohost.a(__sys_rename.o)
 .text.__sys_rename
                0x00000000        0x6 c:/code_red/redsuitenxp_4.0.6_249/redsuite/tools/bin/../lib/gcc/arm-none-eabi/4.5.1/../../../../arm-none-eabi/lib/thumb2\libcr_nohost.a(__sys_rename.o)
 .text          0x00000000        0x0 c:/code_red/redsuitenxp_4.0.6_249/redsuite/tools/bin/../lib/gcc/arm-none-eabi/4.5.1/../../../../arm-none-eabi/lib/thumb2\libcr_nohost.a(__sys_seek.o)
 .data          0x00000000        0x0 c:/code_red/redsuitenxp_4.0.6_249/redsuite/tools/bin/../lib/gcc/arm-none-eabi/4.5.1/../../../../arm-none-eabi/lib/thumb2\libcr_nohost.a(__sys_seek.o)
 .bss           0x00000000        0x0 c:/code_red/redsuitenxp_4.0.6_249/redsuite/tools/bin/../lib/gcc/arm-none-eabi/4.5.1/../../../../arm-none-eabi/lib/thumb2\libcr_nohost.a(__sys_seek.o)
 .text          0x00000000        0x0 c:/code_red/redsuitenxp_4.0.6_249/redsuite/tools/bin/../lib/gcc/arm-none-eabi/4.5.1/../../../../arm-none-eabi/lib/thumb2\libcr_nohost.a(__sys_tmpnam.o)
 .data          0x00000000        0x0 c:/code_red/redsuitenxp_4.0.6_249/redsuite/tools/bin/../lib/gcc/arm-none-eabi/4.5.1/../../../../arm-none-eabi/lib/thumb2\libcr_nohost.a(__sys_tmpnam.o)
 .bss           0x00000000        0x0 c:/code_red/redsuitenxp_4.0.6_249/redsuite/tools/bin/../lib/gcc/arm-none-eabi/4.5.1/../../../../arm-none-eabi/lib/thumb2\libcr_nohost.a(__sys_tmpnam.o)
 .text          0x00000000        0x0 c:/code_red/redsuitenxp_4.0.6_249/redsuite/tools/bin/../lib/gcc/arm-none-eabi/4.5.1/../../../../arm-none-eabi/lib/thumb2\libcr_nohost.a(__sys_write.o)
 .data          0x00000000        0x0 c:/code_red/redsuitenxp_4.0.6_249/redsuite/tools/bin/../lib/gcc/arm-none-eabi/4.5.1/../../../../arm-none-eabi/lib/thumb2\libcr_nohost.a(__sys_write.o)
 .bss           0x00000000        0x0 c:/code_red/redsuitenxp_4.0.6_249/redsuite/tools/bin/../lib/gcc/arm-none-eabi/4.5.1/../../../../arm-none-eabi/lib/thumb2\libcr_nohost.a(__sys_write.o)
 .text          0x00000000        0x0 c:/code_red/redsuitenxp_4.0.6_249/redsuite/tools/bin/../lib/gcc/arm-none-eabi/4.5.1/../../../../arm-none-eabi/lib/thumb2\libcr_nohost.a(_cr_sbrk.o)
 .data          0x00000000        0x0 c:/code_red/redsuitenxp_4.0.6_249/redsuite/tools/bin/../lib/gcc/arm-none-eabi/4.5.1/../../../../arm-none-eabi/lib/thumb2\libcr_nohost.a(_cr_sbrk.o)
 .bss           0x00000000        0x0 c:/code_red/redsuitenxp_4.0.6_249/redsuite/tools/bin/../lib/gcc/arm-none-eabi/4.5.1/../../../../arm-none-eabi/lib/thumb2\libcr_nohost.a(_cr_sbrk.o)
 .text          0x00000000        0x0 c:/code_red/redsuitenxp_4.0.6_249/redsuite/tools/bin/../lib/gcc/arm-none-eabi/4.5.1/../../../../arm-none-eabi/lib/thumb2\libcr_nohost.a(_cr_check_heap.o)
 .data          0x00000000        0x0 c:/code_red/redsuitenxp_4.0.6_249/redsuite/tools/bin/../lib/gcc/arm-none-eabi/4.5.1/../../../../arm-none-eabi/lib/thumb2\libcr_nohost.a(_cr_check_heap.o)
 .bss           0x00000000        0x0 c:/code_red/redsuitenxp_4.0.6_249/redsuite/tools/bin/../lib/gcc/arm-none-eabi/4.5.1/../../../../arm-none-eabi/lib/thumb2\libcr_nohost.a(_cr_check_heap.o)

Memory Configuration

Name             Origin             Length             Attributes
MFlash512        0x00000000         0x00080000         xr
RamLoc32         0x10000000         0x00008000         xrw
RamAHB32         0x2007c000         0x00008000         xrw
*default*        0x00000000         0xffffffff

Linker script and memory map

LOAD ./Source/cr_startup_lpc176x.o
LOAD ./Source/main.o
LOAD ./Source/printf-stdarg.o
LOAD ./Source/lwIP/netif/etharp.o
LOAD ./Source/lwIP/netif/ethernetif.o
LOAD ./Source/lwIP/netif/sys_arch.o
LOAD ./Source/lwIP/lwIP_Apps/lwIP_Apps.o
LOAD ./Source/lwIP/lwIP_Apps/apps/httpserver_raw/fs.o
LOAD ./Source/lwIP/lwIP_Apps/apps/httpserver_raw/httpd.o
LOAD ./Source/lwIP/lwIP_Apps/apps/BasicSocketCommandServer/BasicSocketCommandServer.o
LOAD ./Source/lwIP/core/def.o
LOAD ./Source/lwIP/core/dhcp.o
LOAD ./Source/lwIP/core/dns.o
LOAD ./Source/lwIP/core/init.o
LOAD ./Source/lwIP/core/lwip_timers.o
LOAD ./Source/lwIP/core/mem.o
LOAD ./Source/lwIP/core/memp.o
LOAD ./Source/lwIP/core/netif.o
LOAD ./Source/lwIP/core/pbuf.o
LOAD ./Source/lwIP/core/raw.o
LOAD ./Source/lwIP/core/stats.o
LOAD ./Source/lwIP/core/sys.o
LOAD ./Source/lwIP/core/tcp.o
LOAD ./Source/lwIP/core/tcp_in.o
LOAD ./Source/lwIP/core/tcp_out.o
LOAD ./Source/lwIP/core/udp.o
LOAD ./Source/lwIP/core/ipv4/autoip.o
LOAD ./Source/lwIP/core/ipv4/icmp.o
LOAD ./Source/lwIP/core/ipv4/igmp.o
LOAD ./Source/lwIP/core/ipv4/inet.o
LOAD ./Source/lwIP/core/ipv4/inet_chksum.o
LOAD ./Source/lwIP/core/ipv4/ip.o
LOAD ./Source/lwIP/core/ipv4/ip_addr.o
LOAD ./Source/lwIP/core/ipv4/ip_frag.o
LOAD ./Source/lwIP/api/api_lib.o
LOAD ./Source/lwIP/api/api_msg.o
LOAD ./Source/lwIP/api/err.o
LOAD ./Source/lwIP/api/netbuf.o
LOAD ./Source/lwIP/api/netdb.o
LOAD ./Source/lwIP/api/netifapi.o
LOAD ./Source/lwIP/api/sockets.o
LOAD ./Source/lwIP/api/tcpip.o
LOAD ./Source/MemMang/heap_2.o
LOAD ./Source/FreeRTOS-Products/FreeRTOS-Plus-IO/Device/LPC17xx/FreeRTOS_lpc17xx_DriverInterface.o
LOAD ./Source/FreeRTOS-Products/FreeRTOS-Plus-IO/Device/LPC17xx/FreeRTOS_lpc17xx_i2c.o
LOAD ./Source/FreeRTOS-Products/FreeRTOS-Plus-IO/Device/LPC17xx/FreeRTOS_lpc17xx_ssp.o
LOAD ./Source/FreeRTOS-Products/FreeRTOS-Plus-IO/Device/LPC17xx/FreeRTOS_lpc17xx_uart.o
LOAD ./Source/FreeRTOS-Products/FreeRTOS-Plus-IO/Common/FreeRTOS_DriverInterface.o
LOAD ./Source/FreeRTOS-Products/FreeRTOS-Plus-IO/Common/FreeRTOS_IOUtils.o
LOAD ./Source/FreeRTOS-Products/FreeRTOS-Plus-IO/Common/IOUtils_CharQueueTxAndRx.o
LOAD ./Source/FreeRTOS-Products/FreeRTOS-Plus-IO/Common/IOUtils_CircularBufferRx.o
LOAD ./Source/FreeRTOS-Products/FreeRTOS-Plus-IO/Common/IOUtils_ZeroCopyTx.o
LOAD ./Source/FreeRTOS-Products/FreeRTOS-Plus-CLI/FreeRTOS_CLI.o
LOAD ./Source/FreeRTOS-Products/FreeRTOS/croutine.o
LOAD ./Source/FreeRTOS-Products/FreeRTOS/list.o
LOAD ./Source/FreeRTOS-Products/FreeRTOS/queue.o
LOAD ./Source/FreeRTOS-Products/FreeRTOS/tasks.o
LOAD ./Source/FreeRTOS-Products/FreeRTOS/timers.o
LOAD ./Source/FreeRTOS-Products/FreeRTOS/portable/GCC/ARM_CM3/port.o
LOAD ./Source/FatFS/ff.o
LOAD ./Source/FatFS/mmc.o
LOAD ./Source/FatFS/syscall.o
LOAD ./Source/Examples/SSP/SPI-interface-to-SD-card.o
LOAD ./Source/Examples/GPIO/GPIO-output-and-software-timers.o
LOAD C:\Users\m.paffi.ATESISTEMI\Documents\CCTA-OS\lpc17xx.cmsis.driver.library\Debug\liblpc17xx.cmsis.driver.library.a
LOAD C:\Users\m.paffi.ATESISTEMI\Documents\CCTA-OS\CMSISv2p00_LPC17xx\Debug\libCMSISv2p00_LPC17xx.a
START GROUP
LOAD c:/code_red/redsuitenxp_4.0.6_249/redsuite/tools/bin/../lib/gcc/arm-none-eabi/4.5.1/../../../../arm-none-eabi/lib/thumb2\libcr_nohost.a
LOAD c:/code_red/redsuitenxp_4.0.6_249/redsuite/tools/bin/../lib/gcc/arm-none-eabi/4.5.1/../../../../arm-none-eabi/lib/thumb2\libcr_c.a
LOAD c:/code_red/redsuitenxp_4.0.6_249/redsuite/tools/bin/../lib/gcc/arm-none-eabi/4.5.1/thumb2\libcr_eabihelpers.a
END GROUP
                0x00080000                __top_MFlash512 = 0x80000
                0x10008000                __top_RamLoc32 = 0x10008000
                0x20084000                __top_RamAHB32 = 0x20084000

.text           0x00000000     0xeef4
 FILL mask 0xff
 *(.isr_vector)
 .isr_vector    0x00000000       0xcc ./Source/cr_startup_lpc176x.o
                0x00000000                g_pfnVectors
                0x000000cc                . = ALIGN (0x4)
                0x000000cc                __section_table_start = .
                0x000000cc                __data_section_table = .
                0x000000cc        0x4 LONG 0xeef4 LOADADDR (.data)
                0x000000d0        0x4 LONG 0x10000000 ADDR (.data)
                0x000000d4        0x4 LONG 0x38 SIZEOF (.data)
                0x000000d8        0x4 LONG 0xeef4 LOADADDR (.data_RAM2)
                0x000000dc        0x4 LONG 0x2007c000 ADDR (.data_RAM2)
                0x000000e0        0x4 LONG 0x0 SIZEOF (.data_RAM2)
                0x000000e4                __data_section_table_end = .
                0x000000e4                __bss_section_table = .
                0x000000e4        0x4 LONG 0x10000038 ADDR (.bss)
                0x000000e8        0x4 LONG 0x3aec SIZEOF (.bss)
                0x000000ec        0x4 LONG 0x2007c000 ADDR (.bss_RAM2)
                0x000000f0        0x4 LONG 0x0 SIZEOF (.bss_RAM2)
                0x000000f4                __bss_section_table_end = .
                0x000000f4                __section_table_end = .
 *(.after_vectors*)
 .after_vectors
                0x000000f4       0x94 ./Source/cr_startup_lpc176x.o
                0x000000f4                NMI_Handler
                0x000000f6                HardFault_Handler
                0x00000112                MemManage_Handler
                0x00000114                BusFault_Handler
                0x00000116                UsageFault_Handler
                0x0000011a                DebugMon_Handler
                0x00000120                data_init
                0x00000132                bss_init
                0x00000142                ResetISR
                0x00000184                EINT2_IRQHandler
                0x00000184                UART1_IRQHandler
                0x00000184                EINT3_IRQHandler
                0x00000184                CANActivity_IRQHandler
                0x00000184                TIMER3_IRQHandler
                0x00000184                UART0_IRQHandler
                0x00000184                I2C1_IRQHandler
                0x00000184                PWM1_IRQHandler
                0x00000184                IntDefaultHandler
                0x00000184                PLL0_IRQHandler
                0x00000184                USBActivity_IRQHandler
                0x00000184                PLL1_IRQHandler
                0x00000184                SSP0_IRQHandler
                0x00000184                I2S_IRQHandler
                0x00000184                I2C2_IRQHandler
                0x00000184                RTC_IRQHandler
                0x00000184                TIMER0_IRQHandler
                0x00000184                SPI_IRQHandler
                0x00000184                I2C0_IRQHandler
                0x00000184                EINT1_IRQHandler
                0x00000184                TIMER1_IRQHandler
                0x00000184                UART2_IRQHandler
                0x00000184                ADC_IRQHandler
                0x00000184                USB_IRQHandler
                0x00000184                BOD_IRQHandler
                0x00000184                RIT_IRQHandler
                0x00000184                WDT_IRQHandler
                0x00000184                QEI_IRQHandler
                0x00000184                EINT0_IRQHandler
                0x00000184                CAN_IRQHandler
                0x00000184                DMA_IRQHandler
                0x00000184                TIMER2_IRQHandler
                0x00000184                UART3_IRQHandler
                0x00000184                MCPWM_IRQHandler
 *(.text*)
 .text.pop_registers_from_fault_stack
                0x00000188       0x24 ./Source/cr_startup_lpc176x.o
                0x00000188                pop_registers_from_fault_stack
 .text.prvRunTimeStatsCommand
                0x000001ac       0x2c ./Source/main.o
 .text.prvTaskStatsCommand
                0x000001d8       0x2c ./Source/main.o
 .text.main     0x00000204       0xb8 ./Source/main.o
                0x00000204                main
 .text.vMainConfigureTimerForRunTimeStats
                0x000002bc       0x1c ./Source/main.o
                0x000002bc                vMainConfigureTimerForRunTimeStats
 .text.ulMainGetRunTimeCounterValue
                0x000002d8       0x54 ./Source/main.o
                0x000002d8                ulMainGetRunTimeCounterValue
 .text.pvApplicationGetEMACTxBufferAddress
                0x0000032c        0xc ./Source/main.o
                0x0000032c                pvApplicationGetEMACTxBufferAddress
 .text.pvApplicationGetEMACRxBufferAddress
                0x00000338        0xc ./Source/main.o
                0x00000338                pvApplicationGetEMACRxBufferAddress
 .text.vApplicationMallocFailedHook
                0x00000344        0xa ./Source/main.o
                0x00000344                vApplicationMallocFailedHook
 .text.vApplicationStackOverflowHook
                0x0000034e        0xa ./Source/main.o
                0x0000034e                vApplicationStackOverflowHook
 .text.printchar
                0x00000358        0xe ./Source/printf-stdarg.o
 .text.prints   0x00000366       0x80 ./Source/printf-stdarg.o
 .text.printi   0x000003e6       0xa8 ./Source/printf-stdarg.o
 *fill*         0x0000048e        0x2 00
 .text.print    0x00000490      0x130 ./Source/printf-stdarg.o
 .text.printf   0x000005c0       0x1a ./Source/printf-stdarg.o
                0x000005c0                printf
 .text.sprintf  0x000005da       0x1e ./Source/printf-stdarg.o
                0x000005da                sprintf
 .text.etharp_send_ip
                0x000005f8       0x64 ./Source/lwIP/netif/etharp.o
 .text.free_entry
                0x0000065c       0x84 ./Source/lwIP/netif/etharp.o
 .text.find_entry
                0x000006e0      0x1a8 ./Source/lwIP/netif/etharp.o
 .text.etharp_tmr
                0x00000888       0x34 ./Source/lwIP/netif/etharp.o
                0x00000888                etharp_tmr
 .text.etharp_request
                0x000008bc       0xfc ./Source/lwIP/netif/etharp.o
                0x000008bc                etharp_request
 .text.etharp_query
                0x000009b8      0x16c ./Source/lwIP/netif/etharp.o
                0x000009b8                etharp_query
 .text.etharp_output
                0x00000b24       0xcc ./Source/lwIP/netif/etharp.o
                0x00000b24                etharp_output
 .text.ethernet_input
                0x00000bf0      0x24c ./Source/lwIP/netif/etharp.o
                0x00000bf0                ethernet_input
 .text.prvLowLevelOutput
                0x00000e3c       0x60 ./Source/lwIP/netif/ethernetif.o
 .text.ethernetif_init
                0x00000e9c      0x154 ./Source/lwIP/netif/ethernetif.o
                0x00000e9c                ethernetif_init
 .text.ENET_IRQHandler
                0x00000ff0       0xe4 ./Source/lwIP/netif/ethernetif.o
                0x00000ff0                ENET_IRQHandler
 .text.sys_mbox_new
                0x000010d4       0x1c ./Source/lwIP/netif/sys_arch.o
                0x000010d4                sys_mbox_new
 .text.sys_mbox_free
                0x000010f0       0x20 ./Source/lwIP/netif/sys_arch.o
                0x000010f0                sys_mbox_free
 .text.sys_mbox_post
                0x00001110       0x1a ./Source/lwIP/netif/sys_arch.o
                0x00001110                sys_mbox_post
 *fill*         0x0000112a        0x2 00
 .text.sys_mbox_trypost
                0x0000112c       0x38 ./Source/lwIP/netif/sys_arch.o
                0x0000112c                sys_mbox_trypost
 .text.sys_arch_mbox_fetch
                0x00001164       0x70 ./Source/lwIP/netif/sys_arch.o
                0x00001164                sys_arch_mbox_fetch
 .text.sys_arch_mbox_tryfetch
                0x000011d4       0x34 ./Source/lwIP/netif/sys_arch.o
                0x000011d4                sys_arch_mbox_tryfetch
 .text.sys_sem_new
                0x00001208       0x3a ./Source/lwIP/netif/sys_arch.o
                0x00001208                sys_sem_new
 .text.sys_arch_sem_wait
                0x00001242       0x4a ./Source/lwIP/netif/sys_arch.o
                0x00001242                sys_arch_sem_wait
 .text.sys_mutex_new
                0x0000128c       0x18 ./Source/lwIP/netif/sys_arch.o
                0x0000128c                sys_mutex_new
 .text.sys_mutex_lock
                0x000012a4       0x18 ./Source/lwIP/netif/sys_arch.o
                0x000012a4                sys_mutex_lock
 .text.sys_mutex_unlock
                0x000012bc        0xc ./Source/lwIP/netif/sys_arch.o
                0x000012bc                sys_mutex_unlock
 .text.sys_sem_signal
                0x000012c8       0x28 ./Source/lwIP/netif/sys_arch.o
                0x000012c8                sys_sem_signal
 .text.sys_sem_free
                0x000012f0        0x6 ./Source/lwIP/netif/sys_arch.o
                0x000012f0                sys_sem_free
 .text.sys_init
                0x000012f6        0x2 ./Source/lwIP/netif/sys_arch.o
                0x000012f6                sys_init
 .text.sys_thread_new
                0x000012f8       0x2e ./Source/lwIP/netif/sys_arch.o
                0x000012f8                sys_thread_new
 *fill*         0x00001326        0x2 00
 .text.sys_arch_protect
                0x00001328       0x14 ./Source/lwIP/netif/sys_arch.o
                0x00001328                sys_arch_protect
 .text.sys_arch_unprotect
                0x0000133c       0x10 ./Source/lwIP/netif/sys_arch.o
                0x0000133c                sys_arch_unprotect
 .text.uslwIPAppsSSIHandler
                0x0000134c       0x48 ./Source/lwIP/lwIP_Apps/lwIP_Apps.o
 .text.lwIPAppsInit
                0x00001394       0x84 ./Source/lwIP/lwIP_Apps/lwIP_Apps.o
                0x00001394                lwIPAppsInit
 .text.fs_free  0x00001418       0x20 ./Source/lwIP/lwIP_Apps/apps/httpserver_raw/fs.o
 .text.fs_open  0x00001438       0x70 ./Source/lwIP/lwIP_Apps/apps/httpserver_raw/fs.o
                0x00001438                fs_open
 .text.fs_close
                0x000014a8        0x4 ./Source/lwIP/lwIP_Apps/apps/httpserver_raw/fs.o
                0x000014a8                fs_close
 .text.fs_read  0x000014ac       0x30 ./Source/lwIP/lwIP_Apps/apps/httpserver_raw/fs.o
                0x000014ac                fs_read
 .text.fs_bytes_left
                0x000014dc        0x8 ./Source/lwIP/lwIP_Apps/apps/httpserver_raw/fs.o
                0x000014dc                fs_bytes_left
 .text.http_accept
                0x000014e4       0x90 ./Source/lwIP/lwIP_Apps/apps/httpserver_raw/httpd.o
 .text.http_write
                0x00001574       0x68 ./Source/lwIP/lwIP_Apps/apps/httpserver_raw/httpd.o
 .text.http_state_free
                0x000015dc       0x2a ./Source/lwIP/lwIP_Apps/apps/httpserver_raw/httpd.o
 *fill*         0x00001606        0x2 00
 .text.http_close_conn
                0x00001608       0x54 ./Source/lwIP/lwIP_Apps/apps/httpserver_raw/httpd.o
 .text.http_send_data
                0x0000165c      0x518 ./Source/lwIP/lwIP_Apps/apps/httpserver_raw/httpd.o
 .text.http_sent
                0x00001b74       0x16 ./Source/lwIP/lwIP_Apps/apps/httpserver_raw/httpd.o
 .text.http_err
                0x00001b8a        0x8 ./Source/lwIP/lwIP_Apps/apps/httpserver_raw/httpd.o
 .text.http_poll
                0x00001b92       0x32 ./Source/lwIP/lwIP_Apps/apps/httpserver_raw/httpd.o
 .text.strnstr  0x00001bc4       0x4a ./Source/lwIP/lwIP_Apps/apps/httpserver_raw/httpd.o
 *fill*         0x00001c0e        0x2 00
 .text.http_get_404_file
                0x00001c10       0x34 ./Source/lwIP/lwIP_Apps/apps/httpserver_raw/httpd.o
 .text.http_recv
                0x00001c44      0x25c ./Source/lwIP/lwIP_Apps/apps/httpserver_raw/httpd.o
 .text.httpd_init
                0x00001ea0       0xa4 ./Source/lwIP/lwIP_Apps/apps/httpserver_raw/httpd.o
                0x00001ea0                httpd_init
 .text.http_set_ssi_handler
                0x00001f44       0x88 ./Source/lwIP/lwIP_Apps/apps/httpserver_raw/httpd.o
                0x00001f44                http_set_ssi_handler
 .text.vBasicSocketsCommandInterpreterTask
                0x00001fcc      0x17c ./Source/lwIP/lwIP_Apps/apps/BasicSocketCommandServer/BasicSocketCommandServer.o
                0x00001fcc                vBasicSocketsCommandInterpreterTask
 .text.lwip_htons
                0x00002148        0xa ./Source/lwIP/core/def.o
                0x00002148                lwip_htons
 .text.lwip_ntohs
                0x00002152        0x4 ./Source/lwIP/core/def.o
                0x00002152                lwip_ntohs
 .text.lwip_htonl
                0x00002156        0x4 ./Source/lwIP/core/def.o
                0x00002156                lwip_htonl
 .text.lwip_ntohl
                0x0000215a        0x4 ./Source/lwIP/core/def.o
                0x0000215a                lwip_ntohl
 .text.lwip_init
                0x0000215e       0x1e ./Source/lwIP/core/init.o
                0x0000215e                lwip_init
 .text.sys_timeout
                0x0000217c       0x8c ./Source/lwIP/core/lwip_timers.o
                0x0000217c                sys_timeout
 .text.sys_timeouts_init
                0x00002208       0x10 ./Source/lwIP/core/lwip_timers.o
                0x00002208                sys_timeouts_init
 .text.arp_timer
                0x00002218       0x1c ./Source/lwIP/core/lwip_timers.o
 .text.tcp_timer_needed
                0x00002234       0x34 ./Source/lwIP/core/lwip_timers.o
                0x00002234                tcp_timer_needed
 .text.tcpip_tcp_timer
                0x00002268       0x38 ./Source/lwIP/core/lwip_timers.o
 .text.sys_untimeout
                0x000022a0       0x50 ./Source/lwIP/core/lwip_timers.o
                0x000022a0                sys_untimeout
 .text.sys_timeouts_mbox_fetch
                0x000022f0       0x64 ./Source/lwIP/core/lwip_timers.o
                0x000022f0                sys_timeouts_mbox_fetch
 .text.mem_init
                0x00002354       0x78 ./Source/lwIP/core/mem.o
                0x00002354                mem_init
 .text.mem_free
                0x000023cc      0x1b4 ./Source/lwIP/core/mem.o
                0x000023cc                mem_free
 .text.mem_trim
                0x00002580      0x130 ./Source/lwIP/core/mem.o
                0x00002580                mem_trim
 .text.mem_malloc
                0x000026b0      0x16c ./Source/lwIP/core/mem.o
                0x000026b0                mem_malloc
 .text.memp_init
                0x0000281c       0x48 ./Source/lwIP/core/memp.o
                0x0000281c                memp_init
 .text.memp_malloc
                0x00002864       0x70 ./Source/lwIP/core/memp.o
                0x00002864                memp_malloc
 .text.memp_free
                0x000028d4       0x50 ./Source/lwIP/core/memp.o
                0x000028d4                memp_free
 .text.netif_init
                0x00002924        0x2 ./Source/lwIP/core/netif.o
                0x00002924                netif_init
 *fill*         0x00002926        0x2 00
 .text.netif_set_ipaddr
                0x00002928       0x50 ./Source/lwIP/core/netif.o
                0x00002928                netif_set_ipaddr
 .text.netif_set_gw
                0x00002978        0x8 ./Source/lwIP/core/netif.o
                0x00002978                netif_set_gw
 .text.netif_set_netmask
                0x00002980        0x8 ./Source/lwIP/core/netif.o
                0x00002980                netif_set_netmask
 .text.netif_set_addr
                0x00002988       0x20 ./Source/lwIP/core/netif.o
                0x00002988                netif_set_addr
 .text.netif_add
                0x000029a8       0x80 ./Source/lwIP/core/netif.o
                0x000029a8                netif_add
 .text.netif_set_default
                0x00002a28        0xc ./Source/lwIP/core/netif.o
                0x00002a28                netif_set_default
 .text.netif_set_up
                0x00002a34       0x22 ./Source/lwIP/core/netif.o
                0x00002a34                netif_set_up
 *fill*         0x00002a56        0x2 00
 .text.pbuf_header
                0x00002a58       0xd0 ./Source/lwIP/core/pbuf.o
                0x00002a58                pbuf_header
 .text.pbuf_free
                0x00002b28       0xbc ./Source/lwIP/core/pbuf.o
                0x00002b28                pbuf_free
 .text.pbuf_realloc
                0x00002be4      0x100 ./Source/lwIP/core/pbuf.o
                0x00002be4                pbuf_realloc
 .text.pbuf_alloc
                0x00002ce4      0x1fc ./Source/lwIP/core/pbuf.o
                0x00002ce4                pbuf_alloc
 .text.pbuf_clen
                0x00002ee0       0x12 ./Source/lwIP/core/pbuf.o
                0x00002ee0                pbuf_clen
 .text.pbuf_ref
                0x00002ef2       0x1a ./Source/lwIP/core/pbuf.o
                0x00002ef2                pbuf_ref
 .text.pbuf_cat
                0x00002f0c       0x90 ./Source/lwIP/core/pbuf.o
                0x00002f0c                pbuf_cat
 .text.pbuf_copy
                0x00002f9c      0x130 ./Source/lwIP/core/pbuf.o
                0x00002f9c                pbuf_copy
 .text.pbuf_copy_partial
                0x000030cc       0xa4 ./Source/lwIP/core/pbuf.o
                0x000030cc                pbuf_copy_partial
 .text.tcp_accept_null
                0x00003170        0x6 ./Source/lwIP/core/tcp.o
 *fill*         0x00003176        0x2 00
 .text.tcp_new_port
                0x00003178       0x44 ./Source/lwIP/core/tcp.o
 .text.tcp_bind
                0x000031bc       0x88 ./Source/lwIP/core/tcp.o
                0x000031bc                tcp_bind
 .text.tcp_listen_with_backlog
                0x00003244       0xb8 ./Source/lwIP/core/tcp.o
                0x00003244                tcp_listen_with_backlog
 .text.tcp_update_rcv_ann_wnd
                0x000032fc       0x64 ./Source/lwIP/core/tcp.o
                0x000032fc                tcp_update_rcv_ann_wnd
 .text.tcp_recved
                0x00003360       0x6c ./Source/lwIP/core/tcp.o
                0x00003360                tcp_recved
 .text.tcp_seg_free
                0x000033cc       0x1c ./Source/lwIP/core/tcp.o
                0x000033cc                tcp_seg_free
 .text.tcp_segs_free
                0x000033e8       0x12 ./Source/lwIP/core/tcp.o
                0x000033e8                tcp_segs_free
 .text.tcp_setprio
                0x000033fa        0x4 ./Source/lwIP/core/tcp.o
                0x000033fa                tcp_setprio
 .text.tcp_arg  0x000033fe        0x4 ./Source/lwIP/core/tcp.o
                0x000033fe                tcp_arg
 .text.tcp_recv
                0x00003402        0x6 ./Source/lwIP/core/tcp.o
                0x00003402                tcp_recv
 .text.tcp_sent
                0x00003408        0x6 ./Source/lwIP/core/tcp.o
                0x00003408                tcp_sent
 .text.tcp_err  0x0000340e        0x6 ./Source/lwIP/core/tcp.o
                0x0000340e                tcp_err
 .text.tcp_accept
                0x00003414        0x4 ./Source/lwIP/core/tcp.o
                0x00003414                tcp_accept
 .text.tcp_poll
                0x00003418        0xa ./Source/lwIP/core/tcp.o
                0x00003418                tcp_poll
 .text.tcp_pcb_purge
                0x00003422       0x3a ./Source/lwIP/core/tcp.o
                0x00003422                tcp_pcb_purge
 .text.tcp_slowtmr
                0x0000345c      0x374 ./Source/lwIP/core/tcp.o
                0x0000345c                tcp_slowtmr
 .text.tcp_pcb_remove
                0x000037d0       0xb0 ./Source/lwIP/core/tcp.o
                0x000037d0                tcp_pcb_remove
 .text.tcp_abandon
                0x00003880       0xb8 ./Source/lwIP/core/tcp.o
                0x00003880                tcp_abandon
 .text.tcp_abort
                0x00003938        0x6 ./Source/lwIP/core/tcp.o
                0x00003938                tcp_abort
 *fill*         0x0000393e        0x2 00
 .text.tcp_close_shutdown
                0x00003940      0x144 ./Source/lwIP/core/tcp.o
 .text.tcp_shutdown
                0x00003a84       0x54 ./Source/lwIP/core/tcp.o
                0x00003a84                tcp_shutdown
 .text.tcp_close
                0x00003ad8       0x18 ./Source/lwIP/core/tcp.o
                0x00003ad8                tcp_close
 .text.tcp_recv_null
                0x00003af0       0x24 ./Source/lwIP/core/tcp.o
                0x00003af0                tcp_recv_null
 .text.tcp_fasttmr
                0x00003b14       0x68 ./Source/lwIP/core/tcp.o
                0x00003b14                tcp_fasttmr
 .text.tcp_tmr  0x00003b7c       0x24 ./Source/lwIP/core/tcp.o
                0x00003b7c                tcp_tmr
 .text.tcp_next_iss
                0x00003ba0       0x18 ./Source/lwIP/core/tcp.o
                0x00003ba0                tcp_next_iss
 .text.tcp_alloc
                0x00003bb8      0x104 ./Source/lwIP/core/tcp.o
                0x00003bb8                tcp_alloc
 .text.tcp_new  0x00003cbc        0x6 ./Source/lwIP/core/tcp.o
                0x00003cbc                tcp_new
 .text.tcp_eff_send_mss
                0x00003cc2       0x1e ./Source/lwIP/core/tcp.o
                0x00003cc2                tcp_eff_send_mss
 .text.tcp_receive
                0x00003ce0      0x6c0 ./Source/lwIP/core/tcp_in.o
 .text.tcp_parseopt.clone.0
                0x000043a0       0x90 ./Source/lwIP/core/tcp_in.o
 .text.tcp_input
                0x00004430      0xb00 ./Source/lwIP/core/tcp_in.o
                0x00004430                tcp_input
 .text.tcp_pbuf_prealloc
                0x00004f30       0x84 ./Source/lwIP/core/tcp_out.o
 .text.tcp_create_segment
                0x00004fb4       0xcc ./Source/lwIP/core/tcp_out.o
 .text.tcp_output_alloc_header.clone.0
                0x00005080       0xbc ./Source/lwIP/core/tcp_out.o
 .text.tcp_write
                0x0000513c      0x4a8 ./Source/lwIP/core/tcp_out.o
                0x0000513c                tcp_write
 .text.tcp_enqueue_flags
                0x000055e4      0x168 ./Source/lwIP/core/tcp_out.o
                0x000055e4                tcp_enqueue_flags
 .text.tcp_send_fin
                0x0000574c       0x52 ./Source/lwIP/core/tcp_out.o
                0x0000574c                tcp_send_fin
 .text.tcp_send_empty_ack
                0x0000579e       0x60 ./Source/lwIP/core/tcp_out.o
                0x0000579e                tcp_send_empty_ack
 *fill*         0x000057fe        0x2 00
 .text.tcp_output
                0x00005800      0x398 ./Source/lwIP/core/tcp_out.o
                0x00005800                tcp_output
 .text.tcp_rst  0x00005b98       0xec ./Source/lwIP/core/tcp_out.o
                0x00005b98                tcp_rst
 .text.tcp_rexmit_rto
                0x00005c84       0x30 ./Source/lwIP/core/tcp_out.o
                0x00005c84                tcp_rexmit_rto
 .text.tcp_rexmit
                0x00005cb4       0x6c ./Source/lwIP/core/tcp_out.o
                0x00005cb4                tcp_rexmit
 .text.tcp_rexmit_fast
                0x00005d20       0x5a ./Source/lwIP/core/tcp_out.o
                0x00005d20                tcp_rexmit_fast
 .text.tcp_keepalive
                0x00005d7a       0x56 ./Source/lwIP/core/tcp_out.o
                0x00005d7a                tcp_keepalive
 .text.tcp_zero_window_probe
                0x00005dd0       0xf0 ./Source/lwIP/core/tcp_out.o
                0x00005dd0                tcp_zero_window_probe
 .text.icmp_input
                0x00005ec0      0x214 ./Source/lwIP/core/ipv4/icmp.o
                0x00005ec0                icmp_input
 .text.icmp_dest_unreach
                0x000060d4       0xb4 ./Source/lwIP/core/ipv4/icmp.o
                0x000060d4                icmp_dest_unreach
 .text.lwip_standard_chksum
                0x00006188       0x58 ./Source/lwIP/core/ipv4/inet_chksum.o
 .text.inet_chksum_pseudo
                0x000061e0       0x96 ./Source/lwIP/core/ipv4/inet_chksum.o
                0x000061e0                inet_chksum_pseudo
 .text.inet_chksum
                0x00006276        0xc ./Source/lwIP/core/ipv4/inet_chksum.o
                0x00006276                inet_chksum
 .text.inet_chksum_pbuf
                0x00006282       0x4e ./Source/lwIP/core/ipv4/inet_chksum.o
                0x00006282                inet_chksum_pbuf
 .text.ip_route
                0x000062d0       0x44 ./Source/lwIP/core/ipv4/ip.o
                0x000062d0                ip_route
 .text.ip_input
                0x00006314      0x184 ./Source/lwIP/core/ipv4/ip.o
                0x00006314                ip_input
 .text.ip_output_if
                0x00006498      0x1b0 ./Source/lwIP/core/ipv4/ip.o
                0x00006498                ip_output_if
 .text.ip_output
                0x00006648       0x68 ./Source/lwIP/core/ipv4/ip.o
                0x00006648                ip_output
 .text.ip4_addr_isbroadcast
                0x000066b0       0x40 ./Source/lwIP/core/ipv4/ip_addr.o
                0x000066b0                ip4_addr_isbroadcast
 .text.netconn_recv_data
                0x000066f0      0x124 ./Source/lwIP/api/api_lib.o
 .text.netconn_new_with_proto_and_callback
                0x00006814       0xcc ./Source/lwIP/api/api_lib.o
                0x00006814                netconn_new_with_proto_and_callback
 .text.netconn_delete
                0x000068e0       0x24 ./Source/lwIP/api/api_lib.o
                0x000068e0                netconn_delete
 .text.netconn_getaddr
                0x00006904       0x94 ./Source/lwIP/api/api_lib.o
                0x00006904                netconn_getaddr
 .text.netconn_bind
                0x00006998       0x5c ./Source/lwIP/api/api_lib.o
                0x00006998                netconn_bind
 .text.netconn_listen_with_backlog
                0x000069f4       0x58 ./Source/lwIP/api/api_lib.o
                0x000069f4                netconn_listen_with_backlog
 .text.netconn_accept
                0x00006a4c       0xcc ./Source/lwIP/api/api_lib.o
                0x00006a4c                netconn_accept
 .text.netconn_recv_tcp_pbuf
                0x00006b18       0x38 ./Source/lwIP/api/api_lib.o
                0x00006b18                netconn_recv_tcp_pbuf
 .text.netconn_recv
                0x00006b50       0xe4 ./Source/lwIP/api/api_lib.o
                0x00006b50                netconn_recv
 .text.netconn_recved
                0x00006c34       0x2c ./Source/lwIP/api/api_lib.o
                0x00006c34                netconn_recved
 .text.netconn_write
                0x00006c60       0x88 ./Source/lwIP/api/api_lib.o
                0x00006c60                netconn_write
 .text.setup_tcp
                0x00006ce8       0x44 ./Source/lwIP/api/api_msg.o
 .text.do_close_internal
                0x00006d2c      0x1cc ./Source/lwIP/api/api_msg.o
 .text.err_tcp  0x00006ef8       0xfc ./Source/lwIP/api/api_msg.o
 .text.recv_tcp
                0x00006ff4       0xe0 ./Source/lwIP/api/api_msg.o
 .text.do_writemore
                0x000070d4      0x1c0 ./Source/lwIP/api/api_msg.o
 .text.poll_tcp
                0x00007294       0x7c ./Source/lwIP/api/api_msg.o
 .text.sent_tcp
                0x00007310       0x78 ./Source/lwIP/api/api_msg.o
 .text.do_newconn
                0x00007388       0x3e ./Source/lwIP/api/api_msg.o
                0x00007388                do_newconn
 *fill*         0x000073c6        0x2 00
 .text.netconn_alloc
                0x000073c8       0xa4 ./Source/lwIP/api/api_msg.o
                0x000073c8                netconn_alloc
 .text.netconn_free
                0x0000746c       0x84 ./Source/lwIP/api/api_msg.o
                0x0000746c                netconn_free
 .text.netconn_drain
                0x000074f0       0xb4 ./Source/lwIP/api/api_msg.o
 .text.accept_function
                0x000075a4       0x60 ./Source/lwIP/api/api_msg.o
 .text.do_delconn
                0x00007604       0xe8 ./Source/lwIP/api/api_msg.o
                0x00007604                do_delconn
 .text.do_bind  0x000076ec       0x3c ./Source/lwIP/api/api_msg.o
                0x000076ec                do_bind
 .text.do_listen
                0x00007728       0x9c ./Source/lwIP/api/api_msg.o
                0x00007728                do_listen
 .text.do_recv  0x000077c4       0x3a ./Source/lwIP/api/api_msg.o
                0x000077c4                do_recv
 *fill*         0x000077fe        0x2 00
 .text.do_write
                0x00007800       0x98 ./Source/lwIP/api/api_msg.o
                0x00007800                do_write
 .text.do_getaddr
                0x00007898       0x70 ./Source/lwIP/api/api_msg.o
                0x00007898                do_getaddr
 .text.netbuf_delete
                0x00007908       0x22 ./Source/lwIP/api/netbuf.o
                0x00007908                netbuf_delete
 *fill*         0x0000792a        0x2 00
 .text.get_socket
                0x0000792c       0x20 ./Source/lwIP/api/sockets.o
 .text.alloc_socket
                0x0000794c       0x74 ./Source/lwIP/api/sockets.o
 .text.event_callback
                0x000079c0      0x140 ./Source/lwIP/api/sockets.o
 .text.lwip_socket_init
                0x00007b00        0x2 ./Source/lwIP/api/sockets.o
                0x00007b00                lwip_socket_init
 *fill*         0x00007b02        0x2 00
 .text.lwip_accept
                0x00007b04      0x194 ./Source/lwIP/api/sockets.o
                0x00007b04                lwip_accept
 .text.lwip_bind
                0x00007c98       0x80 ./Source/lwIP/api/sockets.o
                0x00007c98                lwip_bind
 .text.lwip_close
                0x00007d18       0x88 ./Source/lwIP/api/sockets.o
                0x00007d18                lwip_close
 .text.lwip_listen
                0x00007da0       0x44 ./Source/lwIP/api/sockets.o
                0x00007da0                lwip_listen
 .text.lwip_recvfrom
                0x00007de4      0x220 ./Source/lwIP/api/sockets.o
                0x00007de4                lwip_recvfrom
 .text.lwip_recv
                0x00008004        0xe ./Source/lwIP/api/sockets.o
                0x00008004                lwip_recv
 *fill*         0x00008012        0x2 00
 .text.lwip_send
                0x00008014       0x90 ./Source/lwIP/api/sockets.o
                0x00008014                lwip_send
 .text.lwip_socket
                0x000080a4       0x70 ./Source/lwIP/api/sockets.o
                0x000080a4                lwip_socket
 .text.tcpip_thread
                0x00008114       0xa4 ./Source/lwIP/api/tcpip.o
 .text.tcpip_input
                0x000081b8       0x40 ./Source/lwIP/api/tcpip.o
                0x000081b8                tcpip_input
 .text.tcpip_apimsg
                0x000081f8       0x34 ./Source/lwIP/api/tcpip.o
                0x000081f8                tcpip_apimsg
 .text.tcpip_init
                0x0000822c       0x68 ./Source/lwIP/api/tcpip.o
                0x0000822c                tcpip_init
 .text.pvPortMalloc
                0x00008294       0xb8 ./Source/MemMang/heap_2.o
                0x00008294                pvPortMalloc
 .text.vPortFree
                0x0000834c       0x40 ./Source/MemMang/heap_2.o
                0x0000834c                vPortFree
 .text.SSP1_IRQHandler
                0x0000838c      0x1a0 ./Source/FreeRTOS-Products/FreeRTOS-Plus-IO/Device/LPC17xx/FreeRTOS_lpc17xx_ssp.o
                0x0000838c                SSP1_IRQHandler
 .text.prvHelpCommand
                0x0000852c       0x30 ./Source/FreeRTOS-Products/FreeRTOS-Plus-CLI/FreeRTOS_CLI.o
 .text.FreeRTOS_CLIRegisterCommand
                0x0000855c       0x44 ./Source/FreeRTOS-Products/FreeRTOS-Plus-CLI/FreeRTOS_CLI.o
                0x0000855c                FreeRTOS_CLIRegisterCommand
 .text.FreeRTOS_CLIProcessCommand
                0x000085a0       0xc8 ./Source/FreeRTOS-Products/FreeRTOS-Plus-CLI/FreeRTOS_CLI.o
                0x000085a0                FreeRTOS_CLIProcessCommand
 .text.FreeRTOS_CLIGetOutputBuffer
                0x00008668        0x8 ./Source/FreeRTOS-Products/FreeRTOS-Plus-CLI/FreeRTOS_CLI.o
                0x00008668                FreeRTOS_CLIGetOutputBuffer
 .text.vListInitialise
                0x00008670       0x16 ./Source/FreeRTOS-Products/FreeRTOS/list.o
                0x00008670                vListInitialise
 .text.vListInitialiseItem
                0x00008686        0x6 ./Source/FreeRTOS-Products/FreeRTOS/list.o
                0x00008686                vListInitialiseItem
 .text.vListInsertEnd
                0x0000868c       0x1a ./Source/FreeRTOS-Products/FreeRTOS/list.o
                0x0000868c                vListInsertEnd
 .text.vListInsert
                0x000086a6       0x32 ./Source/FreeRTOS-Products/FreeRTOS/list.o
                0x000086a6                vListInsert
 .text.vListRemove
                0x000086d8       0x20 ./Source/FreeRTOS-Products/FreeRTOS/list.o
                0x000086d8                vListRemove
 .text.prvUnlockQueue
                0x000086f8       0x64 ./Source/FreeRTOS-Products/FreeRTOS/queue.o
 .text.prvCopyDataFromQueue
                0x0000875c       0x26 ./Source/FreeRTOS-Products/FreeRTOS/queue.o
 .text.prvCopyDataToQueue
                0x00008782       0x58 ./Source/FreeRTOS-Products/FreeRTOS/queue.o
 .text.xQueueGenericReset
                0x000087da       0x56 ./Source/FreeRTOS-Products/FreeRTOS/queue.o
                0x000087da                xQueueGenericReset
 .text.xQueueGenericCreate
                0x00008830       0x46 ./Source/FreeRTOS-Products/FreeRTOS/queue.o
                0x00008830                xQueueGenericCreate
 .text.xQueueGenericSend
                0x00008876      0x104 ./Source/FreeRTOS-Products/FreeRTOS/queue.o
                0x00008876                xQueueGenericSend
 .text.xQueueCreateMutex
                0x0000897a       0x52 ./Source/FreeRTOS-Products/FreeRTOS/queue.o
                0x0000897a                xQueueCreateMutex
 .text.xQueueGenericSendFromISR
                0x000089cc       0x7a ./Source/FreeRTOS-Products/FreeRTOS/queue.o
                0x000089cc                xQueueGenericSendFromISR
 .text.xQueueGenericReceive
                0x00008a46      0x130 ./Source/FreeRTOS-Products/FreeRTOS/queue.o
                0x00008a46                xQueueGenericReceive
 .text.xQueueReceiveFromISR
                0x00008b76       0x78 ./Source/FreeRTOS-Products/FreeRTOS/queue.o
                0x00008b76                xQueueReceiveFromISR
 .text.uxQueueMessagesWaiting
                0x00008bee       0x1e ./Source/FreeRTOS-Products/FreeRTOS/queue.o
                0x00008bee                uxQueueMessagesWaiting
 .text.vQueueDelete
                0x00008c0c       0x40 ./Source/FreeRTOS-Products/FreeRTOS/queue.o
                0x00008c0c                vQueueDelete
 .text.vQueueWaitForMessageRestricted
                0x00008c4c       0x3e ./Source/FreeRTOS-Products/FreeRTOS/queue.o
                0x00008c4c                vQueueWaitForMessageRestricted
 .text.usTaskCheckFreeStackSpace
                0x00008c8a       0x14 ./Source/FreeRTOS-Products/FreeRTOS/tasks.o
 *fill*         0x00008c9e        0x2 00
 .text.prvAddCurrentTaskToDelayedList
                0x00008ca0       0x50 ./Source/FreeRTOS-Products/FreeRTOS/tasks.o
 .text.prvGenerateRunTimeStatsForTasksInList
                0x00008cf0       0x94 ./Source/FreeRTOS-Products/FreeRTOS/tasks.o
 .text.prvListTaskWithinSingleList
                0x00008d84       0x70 ./Source/FreeRTOS-Products/FreeRTOS/tasks.o
 .text.xTaskGenericCreate
                0x00008df4      0x1d8 ./Source/FreeRTOS-Products/FreeRTOS/tasks.o
                0x00008df4                xTaskGenericCreate
 .text.vTaskDelete
                0x00008fcc       0x70 ./Source/FreeRTOS-Products/FreeRTOS/tasks.o
                0x00008fcc                vTaskDelete
 .text.vTaskStartScheduler
                0x0000903c       0x68 ./Source/FreeRTOS-Products/FreeRTOS/tasks.o
                0x0000903c                vTaskStartScheduler
 .text.vTaskSuspendAll
                0x000090a4       0x10 ./Source/FreeRTOS-Products/FreeRTOS/tasks.o
                0x000090a4                vTaskSuspendAll
 .text.xTaskGetTickCount
                0x000090b4       0x18 ./Source/FreeRTOS-Products/FreeRTOS/tasks.o
                0x000090b4                xTaskGetTickCount
 .text.xTaskGetTickCountFromISR
                0x000090cc       0x1c ./Source/FreeRTOS-Products/FreeRTOS/tasks.o
                0x000090cc                xTaskGetTickCountFromISR
 .text.vTaskIncrementTick
                0x000090e8       0xdc ./Source/FreeRTOS-Products/FreeRTOS/tasks.o
                0x000090e8                vTaskIncrementTick
 .text.xTaskResumeAll
                0x000091c4       0xd0 ./Source/FreeRTOS-Products/FreeRTOS/tasks.o
                0x000091c4                xTaskResumeAll
 .text.vTaskGetRunTimeStats
                0x00009294       0xa4 ./Source/FreeRTOS-Products/FreeRTOS/tasks.o
                0x00009294                vTaskGetRunTimeStats
 .text.vTaskList
                0x00009338       0x98 ./Source/FreeRTOS-Products/FreeRTOS/tasks.o
                0x00009338                vTaskList
 .text.prvIdleTask
                0x000093d0       0x54 ./Source/FreeRTOS-Products/FreeRTOS/tasks.o
 .text.vTaskDelay
                0x00009424       0x38 ./Source/FreeRTOS-Products/FreeRTOS/tasks.o
                0x00009424                vTaskDelay
 .text.vTaskSwitchContext
                0x0000945c       0xc0 ./Source/FreeRTOS-Products/FreeRTOS/tasks.o
                0x0000945c                vTaskSwitchContext
 .text.vTaskPlaceOnEventList
                0x0000951c       0x50 ./Source/FreeRTOS-Products/FreeRTOS/tasks.o
                0x0000951c                vTaskPlaceOnEventList
 .text.vTaskPlaceOnEventListRestricted
                0x0000956c       0x38 ./Source/FreeRTOS-Products/FreeRTOS/tasks.o
                0x0000956c                vTaskPlaceOnEventListRestricted
 .text.xTaskRemoveFromEventList
                0x000095a4       0x70 ./Source/FreeRTOS-Products/FreeRTOS/tasks.o
                0x000095a4                xTaskRemoveFromEventList
 .text.vTaskSetTimeOutState
                0x00009614       0x24 ./Source/FreeRTOS-Products/FreeRTOS/tasks.o
                0x00009614                vTaskSetTimeOutState
 .text.xTaskCheckForTimeOut
                0x00009638       0x70 ./Source/FreeRTOS-Products/FreeRTOS/tasks.o
                0x00009638                xTaskCheckForTimeOut
 .text.vTaskMissedYield
                0x000096a8        0xc ./Source/FreeRTOS-Products/FreeRTOS/tasks.o
                0x000096a8                vTaskMissedYield
 .text.xTaskGetCurrentTaskHandle
                0x000096b4        0xc ./Source/FreeRTOS-Products/FreeRTOS/tasks.o
                0x000096b4                xTaskGetCurrentTaskHandle
 .text.xTaskGetSchedulerState
                0x000096c0       0x1c ./Source/FreeRTOS-Products/FreeRTOS/tasks.o
                0x000096c0                xTaskGetSchedulerState
 .text.vTaskPriorityInherit
                0x000096dc       0x74 ./Source/FreeRTOS-Products/FreeRTOS/tasks.o
                0x000096dc                vTaskPriorityInherit
 .text.vTaskPriorityDisinherit
                0x00009750       0x48 ./Source/FreeRTOS-Products/FreeRTOS/tasks.o
                0x00009750                vTaskPriorityDisinherit
 .text.prvCheckForValidListAndQueue
                0x00009798       0x50 ./Source/FreeRTOS-Products/FreeRTOS/timers.o
 .text.prvInsertTimerInActiveList
                0x000097e8       0x40 ./Source/FreeRTOS-Products/FreeRTOS/timers.o
 .text.xTimerCreateTimerTask
                0x00009828       0x40 ./Source/FreeRTOS-Products/FreeRTOS/timers.o
                0x00009828                xTimerCreateTimerTask
 .text.xTimerCreate
                0x00009868       0x40 ./Source/FreeRTOS-Products/FreeRTOS/timers.o
                0x00009868                xTimerCreate
 .text.xTimerGenericCommand
                0x000098a8       0x44 ./Source/FreeRTOS-Products/FreeRTOS/timers.o
                0x000098a8                xTimerGenericCommand
 .text.prvSampleTimeNow
                0x000098ec       0xa8 ./Source/FreeRTOS-Products/FreeRTOS/timers.o
 .text.prvTimerTask
                0x00009994      0x13c ./Source/FreeRTOS-Products/FreeRTOS/timers.o
 .text.pxPortInitialiseStack
                0x00009ad0       0x20 ./Source/FreeRTOS-Products/FreeRTOS/portable/GCC/ARM_CM3/port.o
                0x00009ad0                pxPortInitialiseStack
 .text.SVCall_Handler
                0x00009af0       0x20 ./Source/FreeRTOS-Products/FreeRTOS/portable/GCC/ARM_CM3/port.o
                0x00009af0                SVCall_Handler
 .text.vPortStartFirstTask
                0x00009b10       0x14 ./Source/FreeRTOS-Products/FreeRTOS/portable/GCC/ARM_CM3/port.o
                0x00009b10                vPortStartFirstTask
 .text.xPortStartScheduler
                0x00009b24       0x4c ./Source/FreeRTOS-Products/FreeRTOS/portable/GCC/ARM_CM3/port.o
                0x00009b24                xPortStartScheduler
 .text.vPortYieldFromISR
                0x00009b70       0x10 ./Source/FreeRTOS-Products/FreeRTOS/portable/GCC/ARM_CM3/port.o
                0x00009b70                vPortYieldFromISR
 .text.vPortEnterCritical
                0x00009b80       0x18 ./Source/FreeRTOS-Products/FreeRTOS/portable/GCC/ARM_CM3/port.o
                0x00009b80                vPortEnterCritical
 .text.vPortExitCritical
                0x00009b98       0x18 ./Source/FreeRTOS-Products/FreeRTOS/portable/GCC/ARM_CM3/port.o
                0x00009b98                vPortExitCritical
 .text.PendSV_Handler
                0x00009bb0       0x3c ./Source/FreeRTOS-Products/FreeRTOS/portable/GCC/ARM_CM3/port.o
                0x00009bb0                PendSV_Handler
 .text.SysTick_Handler
                0x00009bec       0x24 ./Source/FreeRTOS-Products/FreeRTOS/portable/GCC/ARM_CM3/port.o
                0x00009bec                SysTick_Handler
 .text.prvGPIOTimerCallback
                0x00009c10       0x60 ./Source/Examples/GPIO/GPIO-output-and-software-timers.o
 .text.vGPIOSoftwareTimersStart
                0x00009c70       0x78 ./Source/Examples/GPIO/GPIO-output-and-software-timers.o
                0x00009c70                vGPIOSoftwareTimersStart
 .text.rx_descr_init
                0x00009ce8       0xc8 C:\Users\m.paffi.ATESISTEMI\Documents\CCTA-OS\lpc17xx.cmsis.driver.library\Debug\liblpc17xx.cmsis.driver.library.a(lpc17xx_emac.o)
 .text.tx_descr_init
                0x00009db0       0xb0 C:\Users\m.paffi.ATESISTEMI\Documents\CCTA-OS\lpc17xx.cmsis.driver.library\Debug\liblpc17xx.cmsis.driver.library.a(lpc17xx_emac.o)
 .text.write_PHY
                0x00009e60       0x68 C:\Users\m.paffi.ATESISTEMI\Documents\CCTA-OS\lpc17xx.cmsis.driver.library\Debug\liblpc17xx.cmsis.driver.library.a(lpc17xx_emac.o)
 .text.read_PHY
                0x00009ec8       0x74 C:\Users\m.paffi.ATESISTEMI\Documents\CCTA-OS\lpc17xx.cmsis.driver.library\Debug\liblpc17xx.cmsis.driver.library.a(lpc17xx_emac.o)
 .text.setEmacAddr
                0x00009f3c       0x68 C:\Users\m.paffi.ATESISTEMI\Documents\CCTA-OS\lpc17xx.cmsis.driver.library\Debug\liblpc17xx.cmsis.driver.library.a(lpc17xx_emac.o)
 .text.EMAC_Init
                0x00009fa4      0x1e0 C:\Users\m.paffi.ATESISTEMI\Documents\CCTA-OS\lpc17xx.cmsis.driver.library\Debug\liblpc17xx.cmsis.driver.library.a(lpc17xx_emac.o)
                0x00009fa4                EMAC_Init
 .text.EMAC_SetPHYMode
                0x0000a184      0x110 C:\Users\m.paffi.ATESISTEMI\Documents\CCTA-OS\lpc17xx.cmsis.driver.library\Debug\liblpc17xx.cmsis.driver.library.a(lpc17xx_emac.o)
                0x0000a184                EMAC_SetPHYMode
 .text.EMAC_UpdatePHYStatus
                0x0000a294       0xbc C:\Users\m.paffi.ATESISTEMI\Documents\CCTA-OS\lpc17xx.cmsis.driver.library\Debug\liblpc17xx.cmsis.driver.library.a(lpc17xx_emac.o)
                0x0000a294                EMAC_UpdatePHYStatus
 .text.EMAC_NextPacketToSend
                0x0000a350       0x24 C:\Users\m.paffi.ATESISTEMI\Documents\CCTA-OS\lpc17xx.cmsis.driver.library\Debug\liblpc17xx.cmsis.driver.library.a(lpc17xx_emac.o)
                0x0000a350                EMAC_NextPacketToSend
 .text.EMAC_StartTransmitNextBuffer
                0x0000a374       0x58 C:\Users\m.paffi.ATESISTEMI\Documents\CCTA-OS\lpc17xx.cmsis.driver.library\Debug\liblpc17xx.cmsis.driver.library.a(lpc17xx_emac.o)
                0x0000a374                EMAC_StartTransmitNextBuffer
 .text.EMAC_NextPacketToRead
                0x0000a3cc       0x24 C:\Users\m.paffi.ATESISTEMI\Documents\CCTA-OS\lpc17xx.cmsis.driver.library\Debug\liblpc17xx.cmsis.driver.library.a(lpc17xx_emac.o)
                0x0000a3cc                EMAC_NextPacketToRead
 .text.EMAC_CheckReceiveIndex
                0x0000a3f0       0x2c C:\Users\m.paffi.ATESISTEMI\Documents\CCTA-OS\lpc17xx.cmsis.driver.library\Debug\liblpc17xx.cmsis.driver.library.a(lpc17xx_emac.o)
                0x0000a3f0                EMAC_CheckReceiveIndex
 .text.EMAC_CheckTransmitIndex
                0x0000a41c       0x54 C:\Users\m.paffi.ATESISTEMI\Documents\CCTA-OS\lpc17xx.cmsis.driver.library\Debug\liblpc17xx.cmsis.driver.library.a(lpc17xx_emac.o)
                0x0000a41c                EMAC_CheckTransmitIndex
 .text.EMAC_CheckReceiveDataStatus
                0x0000a470       0x40 C:\Users\m.paffi.ATESISTEMI\Documents\CCTA-OS\lpc17xx.cmsis.driver.library\Debug\liblpc17xx.cmsis.driver.library.a(lpc17xx_emac.o)
                0x0000a470                EMAC_CheckReceiveDataStatus
 .text.EMAC_GetReceiveDataSize
                0x0000a4b0       0x34 C:\Users\m.paffi.ATESISTEMI\Documents\CCTA-OS\lpc17xx.cmsis.driver.library\Debug\liblpc17xx.cmsis.driver.library.a(lpc17xx_emac.o)
                0x0000a4b0                EMAC_GetReceiveDataSize
 .text.EMAC_UpdateRxConsumeIndex
                0x0000a4e4       0x38 C:\Users\m.paffi.ATESISTEMI\Documents\CCTA-OS\lpc17xx.cmsis.driver.library\Debug\liblpc17xx.cmsis.driver.library.a(lpc17xx_emac.o)
                0x0000a4e4                EMAC_UpdateRxConsumeIndex
 .text.GPIO_GetPointer
                0x0000a51c       0x7c C:\Users\m.paffi.ATESISTEMI\Documents\CCTA-OS\lpc17xx.cmsis.driver.library\Debug\liblpc17xx.cmsis.driver.library.a(lpc17xx_gpio.o)
 .text.GPIO_SetDir
                0x0000a598       0x58 C:\Users\m.paffi.ATESISTEMI\Documents\CCTA-OS\lpc17xx.cmsis.driver.library\Debug\liblpc17xx.cmsis.driver.library.a(lpc17xx_gpio.o)
                0x0000a598                GPIO_SetDir
 .text.GPIO_SetValue
                0x0000a5f0       0x2c C:\Users\m.paffi.ATESISTEMI\Documents\CCTA-OS\lpc17xx.cmsis.driver.library\Debug\liblpc17xx.cmsis.driver.library.a(lpc17xx_gpio.o)
                0x0000a5f0                GPIO_SetValue
 .text.GPIO_ClearValue
                0x0000a61c       0x2c C:\Users\m.paffi.ATESISTEMI\Documents\CCTA-OS\lpc17xx.cmsis.driver.library\Debug\liblpc17xx.cmsis.driver.library.a(lpc17xx_gpio.o)
                0x0000a61c                GPIO_ClearValue
 .text.set_PinFunc
                0x0000a648       0xa0 C:\Users\m.paffi.ATESISTEMI\Documents\CCTA-OS\lpc17xx.cmsis.driver.library\Debug\liblpc17xx.cmsis.driver.library.a(lpc17xx_pinsel.o)
 .text.set_ResistorMode
                0x0000a6e8       0xa0 C:\Users\m.paffi.ATESISTEMI\Documents\CCTA-OS\lpc17xx.cmsis.driver.library\Debug\liblpc17xx.cmsis.driver.library.a(lpc17xx_pinsel.o)
 .text.set_OpenDrainMode
                0x0000a788       0x80 C:\Users\m.paffi.ATESISTEMI\Documents\CCTA-OS\lpc17xx.cmsis.driver.library\Debug\liblpc17xx.cmsis.driver.library.a(lpc17xx_pinsel.o)
 .text.PINSEL_ConfigPin
                0x0000a808       0x54 C:\Users\m.paffi.ATESISTEMI\Documents\CCTA-OS\lpc17xx.cmsis.driver.library\Debug\liblpc17xx.cmsis.driver.library.a(lpc17xx_pinsel.o)
                0x0000a808                PINSEL_ConfigPin
 .text.CLKPWR_ConfigPPWR
                0x0000a85c       0x80 C:\Users\m.paffi.ATESISTEMI\Documents\CCTA-OS\lpc17xx.cmsis.driver.library\Debug\liblpc17xx.cmsis.driver.library.a(lpc17xx_clkpwr.o)
                0x0000a85c                CLKPWR_ConfigPPWR
 .text.SystemInit
                0x0000a8dc       0xe4 C:\Users\m.paffi.ATESISTEMI\Documents\CCTA-OS\CMSISv2p00_LPC17xx\Debug\libCMSISv2p00_LPC17xx.a(system_LPC17xx.o)
                0x0000a8dc                SystemInit
 .text.__main   0x0000a9c0       0x14 c:/code_red/redsuitenxp_4.0.6_249/redsuite/tools/bin/../lib/gcc/arm-none-eabi/4.5.1/../../../../arm-none-eabi/lib/thumb2\libcr_nohost.a(_cr__main.o)
                0x0000a9c0                __main
 .text.fflush   0x0000a9d4       0x34 c:/code_red/redsuitenxp_4.0.6_249/redsuite/tools/bin/../lib/gcc/arm-none-eabi/4.5.1/../../../../arm-none-eabi/lib/thumb2\libcr_c.a(fflush.o)
                0x0000a9d4                fflush
 .text._initio  0x0000aa08       0x9c c:/code_red/redsuitenxp_4.0.6_249/redsuite/tools/bin/../lib/gcc/arm-none-eabi/4.5.1/../../../../arm-none-eabi/lib/thumb2\libcr_c.a(initio.o)
                0x0000aa08                _initio
 .text._terminateio
                0x0000aaa4       0x48 c:/code_red/redsuitenxp_4.0.6_249/redsuite/tools/bin/../lib/gcc/arm-none-eabi/4.5.1/../../../../arm-none-eabi/lib/thumb2\libcr_c.a(initio.o)
                0x0000aaa4                _terminateio
 .text.memcmp   0x0000aaec       0x46 c:/code_red/redsuitenxp_4.0.6_249/redsuite/tools/bin/../lib/gcc/arm-none-eabi/4.5.1/../../../../arm-none-eabi/lib/thumb2\libcr_c.a(memcmp.o)
                0x0000aaec                memcmp
 *fill*         0x0000ab32        0x2 00
 .text.setvbuf  0x0000ab34       0x48 c:/code_red/redsuitenxp_4.0.6_249/redsuite/tools/bin/../lib/gcc/arm-none-eabi/4.5.1/../../../../arm-none-eabi/lib/thumb2\libcr_c.a(setvbuf.o)
                0x0000ab34                setvbuf
 .text.exit     0x0000ab7c       0x2c c:/code_red/redsuitenxp_4.0.6_249/redsuite/tools/bin/../lib/gcc/arm-none-eabi/4.5.1/../../../../arm-none-eabi/lib/thumb2\libcr_c.a(stdlib.o)
                0x0000ab7c                exit
 .text.abort    0x0000aba8       0x12 c:/code_red/redsuitenxp_4.0.6_249/redsuite/tools/bin/../lib/gcc/arm-none-eabi/4.5.1/../../../../arm-none-eabi/lib/thumb2\libcr_c.a(stdlib.o)
                0x0000aba8                abort
 .text.strcat   0x0000abba       0x1c c:/code_red/redsuitenxp_4.0.6_249/redsuite/tools/bin/../lib/gcc/arm-none-eabi/4.5.1/../../../../arm-none-eabi/lib/thumb2\libcr_c.a(strcat.o)
                0x0000abba                strcat
 .text.strchr   0x0000abd6       0x18 c:/code_red/redsuitenxp_4.0.6_249/redsuite/tools/bin/../lib/gcc/arm-none-eabi/4.5.1/../../../../arm-none-eabi/lib/thumb2\libcr_c.a(strchr.o)
                0x0000abd6                strchr
 .text.strcmp   0x0000abee       0x46 c:/code_red/redsuitenxp_4.0.6_249/redsuite/tools/bin/../lib/gcc/arm-none-eabi/4.5.1/../../../../arm-none-eabi/lib/thumb2\libcr_c.a(strcmp.o)
                0x0000abee                strcmp
 .text.strcpy   0x0000ac34       0x42 c:/code_red/redsuitenxp_4.0.6_249/redsuite/tools/bin/../lib/gcc/arm-none-eabi/4.5.1/../../../../arm-none-eabi/lib/thumb2\libcr_c.a(strcpy.o)
                0x0000ac34                strcpy
 .text.strlen   0x0000ac76       0x4e c:/code_red/redsuitenxp_4.0.6_249/redsuite/tools/bin/../lib/gcc/arm-none-eabi/4.5.1/../../../../arm-none-eabi/lib/thumb2\libcr_c.a(strlen.o)
                0x0000ac76                strlen
 .text.strncmp  0x0000acc4       0x58 c:/code_red/redsuitenxp_4.0.6_249/redsuite/tools/bin/../lib/gcc/arm-none-eabi/4.5.1/../../../../arm-none-eabi/lib/thumb2\libcr_c.a(strncmp.o)
                0x0000acc4                strncmp
 .text.strncpy  0x0000ad1c       0x58 c:/code_red/redsuitenxp_4.0.6_249/redsuite/tools/bin/../lib/gcc/arm-none-eabi/4.5.1/../../../../arm-none-eabi/lib/thumb2\libcr_c.a(strncpy.o)
                0x0000ad1c                strncpy
 .text.strstr   0x0000ad74       0x20 c:/code_red/redsuitenxp_4.0.6_249/redsuite/tools/bin/../lib/gcc/arm-none-eabi/4.5.1/../../../../arm-none-eabi/lib/thumb2\libcr_c.a(strstr.o)
                0x0000ad74                strstr
 .text.memcpy   0x0000ad94        0x4 c:/code_red/redsuitenxp_4.0.6_249/redsuite/tools/bin/../lib/gcc/arm-none-eabi/4.5.1/../../../../arm-none-eabi/lib/thumb2\libcr_c.a(memcpy.o)
                0x0000ad94                memcpy
 .text.memset   0x0000ad98        0x4 c:/code_red/redsuitenxp_4.0.6_249/redsuite/tools/bin/../lib/gcc/arm-none-eabi/4.5.1/../../../../arm-none-eabi/lib/thumb2\libcr_c.a(memset.o)
                0x0000ad98                memset
 .text._deferredlazyseek
                0x0000ad9c       0x44 c:/code_red/redsuitenxp_4.0.6_249/redsuite/tools/bin/../lib/gcc/arm-none-eabi/4.5.1/../../../../arm-none-eabi/lib/thumb2\libcr_c.a(_deferredlazyseek.o)
                0x0000ad9c                _deferredlazyseek
 .text._do_fflush
                0x0000ade0       0x44 c:/code_red/redsuitenxp_4.0.6_249/redsuite/tools/bin/../lib/gcc/arm-none-eabi/4.5.1/../../../../arm-none-eabi/lib/thumb2\libcr_c.a(_do_fflush.o)
                0x0000ade0                _do_fflush
 .text._fdopen  0x0000ae24       0x6e c:/code_red/redsuitenxp_4.0.6_249/redsuite/tools/bin/../lib/gcc/arm-none-eabi/4.5.1/../../../../arm-none-eabi/lib/thumb2\libcr_c.a(_fdopen.o)
                0x0000ae24                _fdopen
 .text._fflush  0x0000ae92       0x58 c:/code_red/redsuitenxp_4.0.6_249/redsuite/tools/bin/../lib/gcc/arm-none-eabi/4.5.1/../../../../arm-none-eabi/lib/thumb2\libcr_c.a(_fflush.o)
                0x0000ae92                _fflush
 *fill*         0x0000aeea        0x2 00
 .text._Cwritebuf
                0x0000aeec       0x88 c:/code_red/redsuitenxp_4.0.6_249/redsuite/tools/bin/../lib/gcc/arm-none-eabi/4.5.1/../../../../arm-none-eabi/lib/thumb2\libcr_c.a(_writebuf.o)
                0x0000aeec                _Cwritebuf
 .text.malloc   0x0000af74       0xd0 c:/code_red/redsuitenxp_4.0.6_249/redsuite/tools/bin/../lib/gcc/arm-none-eabi/4.5.1/../../../../arm-none-eabi/lib/thumb2\libcr_c.a(alloc.o)
                0x0000af74                malloc
 .text.free     0x0000b044        0xa c:/code_red/redsuitenxp_4.0.6_249/redsuite/tools/bin/../lib/gcc/arm-none-eabi/4.5.1/../../../../arm-none-eabi/lib/thumb2\libcr_c.a(alloc.o)
                0x0000b044                free
 *fill*         0x0000b04e        0x2 00
 .text._Csys_alloc
                0x0000b050       0x20 c:/code_red/redsuitenxp_4.0.6_249/redsuite/tools/bin/../lib/gcc/arm-none-eabi/4.5.1/../../../../arm-none-eabi/lib/thumb2\libcr_c.a(alloc.o)
                0x0000b050                _Csys_alloc
 .text.fclose   0x0000b070       0x72 c:/code_red/redsuitenxp_4.0.6_249/redsuite/tools/bin/../lib/gcc/arm-none-eabi/4.5.1/../../../../arm-none-eabi/lib/thumb2\libcr_c.a(fclose.o)
                0x0000b070                fclose
 *fill*         0x0000b0e2        0x2 00
 .text.fseek    0x0000b0e4      0x110 c:/code_red/redsuitenxp_4.0.6_249/redsuite/tools/bin/../lib/gcc/arm-none-eabi/4.5.1/../../../../arm-none-eabi/lib/thumb2\libcr_c.a(fseek.o)
                0x0000b0e4                fseek
 .text.ftell    0x0000b1f4       0x50 c:/code_red/redsuitenxp_4.0.6_249/redsuite/tools/bin/../lib/gcc/arm-none-eabi/4.5.1/../../../../arm-none-eabi/lib/thumb2\libcr_c.a(ftell.o)
                0x0000b1f4                ftell
 .text.raise    0x0000b244        0x6 c:/code_red/redsuitenxp_4.0.6_249/redsuite/tools/bin/../lib/gcc/arm-none-eabi/4.5.1/../../../../arm-none-eabi/lib/thumb2\libcr_c.a(raise.o)
                0x0000b244                raise
 .text.remove   0x0000b24a       0x14 c:/code_red/redsuitenxp_4.0.6_249/redsuite/tools/bin/../lib/gcc/arm-none-eabi/4.5.1/../../../../arm-none-eabi/lib/thumb2\libcr_c.a(remove.o)
                0x0000b24a                remove
 .text.__aeabi_memcpy
                0x0000b25e       0x26 c:/code_red/redsuitenxp_4.0.6_249/redsuite/tools/bin/../lib/gcc/arm-none-eabi/4.5.1/thumb2\libcr_eabihelpers.a(memcpy.o)
                0x0000b25e                __aeabi_memcpy4
                0x0000b25e                __aeabi_memcpy8
                0x0000b25e                __aeabi_memcpy
 .text.__aeabi_memset_lowlevel
                0x0000b284       0x24 c:/code_red/redsuitenxp_4.0.6_249/redsuite/tools/bin/../lib/gcc/arm-none-eabi/4.5.1/thumb2\libcr_eabihelpers.a(memcpy.o)
                0x0000b284                __aeabi_lowlevel_memset
 .text.__sys_appexit
                0x0000b2a8        0x2 c:/code_red/redsuitenxp_4.0.6_249/redsuite/tools/bin/../lib/gcc/arm-none-eabi/4.5.1/../../../../arm-none-eabi/lib/thumb2\libcr_nohost.a(__sys_appexit.o)
                0x0000b2a8                __sys_appexit
                0x0000b2a8                __exit
 .text.__sys_close
                0x0000b2aa        0x6 c:/code_red/redsuitenxp_4.0.6_249/redsuite/tools/bin/../lib/gcc/arm-none-eabi/4.5.1/../../../../arm-none-eabi/lib/thumb2\libcr_nohost.a(__sys_close.o)
                0x0000b2aa                __sys_close
 .text.__sys_flen
                0x0000b2b0        0x6 c:/code_red/redsuitenxp_4.0.6_249/redsuite/tools/bin/../lib/gcc/arm-none-eabi/4.5.1/../../../../arm-none-eabi/lib/thumb2\libcr_nohost.a(__sys_flen.o)
                0x0000b2b0                __sys_flen
 .text.__sys_istty
                0x0000b2b6        0x6 c:/code_red/redsuitenxp_4.0.6_249/redsuite/tools/bin/../lib/gcc/arm-none-eabi/4.5.1/../../../../arm-none-eabi/lib/thumb2\libcr_nohost.a(__sys_istty.o)
                0x0000b2b6                __sys_istty
 .text.__sys_remove
                0x0000b2bc        0x6 c:/code_red/redsuitenxp_4.0.6_249/redsuite/tools/bin/../lib/gcc/arm-none-eabi/4.5.1/../../../../arm-none-eabi/lib/thumb2\libcr_nohost.a(__sys_remove.o)
                0x0000b2bc                __sys_remove
 .text.__sys_seek
                0x0000b2c2        0x6 c:/code_red/redsuitenxp_4.0.6_249/redsuite/tools/bin/../lib/gcc/arm-none-eabi/4.5.1/../../../../arm-none-eabi/lib/thumb2\libcr_nohost.a(__sys_seek.o)
                0x0000b2c2                __sys_seek
 .text.__sys_tmpnam
                0x0000b2c8        0x6 c:/code_red/redsuitenxp_4.0.6_249/redsuite/tools/bin/../lib/gcc/arm-none-eabi/4.5.1/../../../../arm-none-eabi/lib/thumb2\libcr_nohost.a(__sys_tmpnam.o)
                0x0000b2c8                __sys_tmpnam
 .text.__sys_write
                0x0000b2ce        0x4 c:/code_red/redsuitenxp_4.0.6_249/redsuite/tools/bin/../lib/gcc/arm-none-eabi/4.5.1/../../../../arm-none-eabi/lib/thumb2\libcr_nohost.a(__sys_write.o)
                0x0000b2ce                __sys_write
                0x0000b2ce                __write
 *fill*         0x0000b2d2        0x2 00
 .text._sbrk    0x0000b2d4       0x40 c:/code_red/redsuitenxp_4.0.6_249/redsuite/tools/bin/../lib/gcc/arm-none-eabi/4.5.1/../../../../arm-none-eabi/lib/thumb2\libcr_nohost.a(_cr_sbrk.o)
                0x0000b2d4                _sbrk
 .text.__check_heap_overflow
                0x0000b314       0x2c c:/code_red/redsuitenxp_4.0.6_249/redsuite/tools/bin/../lib/gcc/arm-none-eabi/4.5.1/../../../../arm-none-eabi/lib/thumb2\libcr_nohost.a(_cr_check_heap.o)
                0x0000b314                __check_heap_overflow
 *(.rodata .rodata.*)
 .rodata.xRunTimeStats
                0x0000b340       0x10 ./Source/main.o
 .rodata.str1.1
                0x0000b350      0x16d ./Source/main.o
 *fill*         0x0000b4bd        0x3 00
 .rodata.xTaskStats
                0x0000b4c0       0x10 ./Source/main.o
 .rodata.str1.1
                0x0000b4d0        0x7 ./Source/printf-stdarg.o
 .rodata.ethbroadcast
                0x0000b4d7        0x6 ./Source/lwIP/netif/etharp.o
                0x0000b4d7                ethbroadcast
 .rodata.str1.1
                0x0000b4dd      0x212 ./Source/lwIP/netif/etharp.o
 .rodata.ethzero
                0x0000b6ef        0x6 ./Source/lwIP/netif/etharp.o
                0x0000b6ef                ethzero
 .rodata.str1.1
                0x0000b6f5       0x32 ./Source/lwIP/netif/ethernetif.o
                                 0x5a (size before relaxing)
 .rodata.str1.1
                0x0000b727       0x31 ./Source/lwIP/lwIP_Apps/lwIP_Apps.o
 .rodata.data__logo_jpg
                0x0000b758      0xfee ./Source/lwIP/lwIP_Apps/apps/httpserver_raw/fs.o
 .rodata.data__404_html
                0x0000c746      0x2a3 ./Source/lwIP/lwIP_Apps/apps/httpserver_raw/fs.o
 *fill*         0x0000c9e9        0x3 00
 .rodata.file__404_html
                0x0000c9ec       0x14 ./Source/lwIP/lwIP_Apps/apps/httpserver_raw/fs.o
                0x0000c9ec                file__404_html
 .rodata.file__logo_jpg
                0x0000ca00       0x14 ./Source/lwIP/lwIP_Apps/apps/httpserver_raw/fs.o
                0x0000ca00                file__logo_jpg
 .rodata.data__index_shtml
                0x0000ca14      0x3af ./Source/lwIP/lwIP_Apps/apps/httpserver_raw/fs.o
 *fill*         0x0000cdc3        0x1 00
 .rodata.file__index_shtml
                0x0000cdc4       0x14 ./Source/lwIP/lwIP_Apps/apps/httpserver_raw/fs.o
                0x0000cdc4                file__index_shtml
 .rodata.data__runtime_shtml
                0x0000cdd8      0x3ab ./Source/lwIP/lwIP_Apps/apps/httpserver_raw/fs.o
 *fill*         0x0000d183        0x1 00
 .rodata.file__runtime_shtml
                0x0000d184       0x14 ./Source/lwIP/lwIP_Apps/apps/httpserver_raw/fs.o
                0x0000d184                file__runtime_shtml
 .rodata.str1.1
                0x0000d198      0x214 ./Source/lwIP/lwIP_Apps/apps/httpserver_raw/httpd.o
                                0x258 (size before relaxing)
 .rodata.g_pcSSIExtensions
                0x0000d3ac       0x10 ./Source/lwIP/lwIP_Apps/apps/httpserver_raw/httpd.o
                0x0000d3ac                g_pcSSIExtensions
 .rodata.g_psDefaultFilenames
                0x0000d3bc       0x28 ./Source/lwIP/lwIP_Apps/apps/httpserver_raw/httpd.o
                0x0000d3bc                g_psDefaultFilenames
 .rodata.str1.1
                0x0000d3e4       0x6b ./Source/lwIP/lwIP_Apps/apps/BasicSocketCommandServer/BasicSocketCommandServer.o
                                 0x72 (size before relaxing)
 .rodata.str1.1
                0x0000d44f       0x5f ./Source/lwIP/core/lwip_timers.o
                                 0x87 (size before relaxing)
 .rodata.str1.1
                0x0000d4ae      0x1c9 ./Source/lwIP/core/mem.o
                                0x1f1 (size before relaxing)
 *fill*         0x0000d677        0x1 00
 .rodata.memp_num
                0x0000d678       0x16 ./Source/lwIP/core/memp.o
 .rodata.str1.1
                0x0000d68e       0x7b ./Source/lwIP/core/memp.o
                                 0xa3 (size before relaxing)
 *fill*         0x0000d709        0x1 00
 .rodata.memp_sizes
                0x0000d70a       0x16 ./Source/lwIP/core/memp.o
 .rodata.str1.1
                0x0000d720       0x33 ./Source/lwIP/core/netif.o
                                 0x5b (size before relaxing)
 .rodata.str1.1
                0x0000d753      0x3bc ./Source/lwIP/core/pbuf.o
                                0x3ee (size before relaxing)
 *fill*         0x0000db0f        0x1 00
 .rodata.tcp_pcb_lists
                0x0000db10       0x10 ./Source/lwIP/core/tcp.o
                0x0000db10                tcp_pcb_lists
 .rodata.tcp_backoff
                0x0000db20        0xd ./Source/lwIP/core/tcp.o
                0x0000db20                tcp_backoff
 .rodata.str1.1
                0x0000db2d      0x2f9 ./Source/lwIP/core/tcp.o
                                0x32f (size before relaxing)
 .rodata.tcp_persist_backoff
                0x0000de26        0x7 ./Source/lwIP/core/tcp.o
                0x0000de26                tcp_persist_backoff
 .rodata.str1.1
                0x0000de2d      0x25b ./Source/lwIP/core/tcp_in.o
                                0x283 (size before relaxing)
 .rodata.str1.1
                0x0000e088      0x30c ./Source/lwIP/core/tcp_out.o
                                0x334 (size before relaxing)
 .rodata.str1.1
                0x0000e394      0x10f ./Source/lwIP/core/ipv4/icmp.o
                                0x158 (size before relaxing)
 .rodata.str1.1
                0x0000e4a3       0x57 ./Source/lwIP/core/ipv4/ip.o
                                 0x7f (size before relaxing)
 *fill*         0x0000e4fa        0x2 00
 .rodata.ip_addr_any
                0x0000e4fc        0x4 ./Source/lwIP/core/ipv4/ip_addr.o
                0x0000e4fc                ip_addr_any
 .rodata.str1.1
                0x0000e500      0x28d ./Source/lwIP/api/api_lib.o
                                0x2bf (size before relaxing)
 .rodata.str1.1
                0x0000e78d      0x366 ./Source/lwIP/api/api_msg.o
                                0x3d5 (size before relaxing)
 *fill*         0x0000eaf3        0x1 00
 .rodata.err_to_errno_table
                0x0000eaf4       0x40 ./Source/lwIP/api/sockets.o
 .rodata.str1.1
                0x0000eb34      0x1ee ./Source/lwIP/api/sockets.o
                                0x216 (size before relaxing)
 .rodata.str1.1
                0x0000ed22       0x62 ./Source/lwIP/api/tcpip.o
                                 0x8a (size before relaxing)
 .rodata.xHelpCommand
                0x0000ed84       0x10 ./Source/FreeRTOS-Products/FreeRTOS-Plus-CLI/FreeRTOS_CLI.o
 .rodata.str1.1
                0x0000ed94       0xd7 ./Source/FreeRTOS-Products/FreeRTOS-Plus-CLI/FreeRTOS_CLI.o
 .rodata.ucExpectedStackBytes.1772
                0x0000ee6b       0x14 ./Source/FreeRTOS-Products/FreeRTOS/tasks.o
 .rodata.str1.1
                0x0000ee7f       0x42 ./Source/FreeRTOS-Products/FreeRTOS/tasks.o
                                 0x45 (size before relaxing)
 .rodata.str1.1
                0x0000eec1        0x8 ./Source/FreeRTOS-Products/FreeRTOS/timers.o
 .rodata.str1.1
                0x0000eec9        0x8 ./Source/Examples/GPIO/GPIO-output-and-software-timers.o
 .rodata.ucLEDPorts
                0x0000eed1        0x2 ./Source/Examples/GPIO/GPIO-output-and-software-timers.o
                0x0000eed1                ucLEDPorts
 *fill*         0x0000eed3        0x1 00
 .rodata.EMAC_clkdiv
                0x0000eed4        0x8 C:\Users\m.paffi.ATESISTEMI\Documents\CCTA-OS\lpc17xx.cmsis.driver.library\Debug\liblpc17xx.cmsis.driver.library.a(lpc17xx_emac.o)
                0x0000eed4                EMAC_clkdiv
 .rodata.str1.1
                0x00000000        0x8 c:/code_red/redsuitenxp_4.0.6_249/redsuite/tools/bin/../lib/gcc/arm-none-eabi/4.5.1/../../../../arm-none-eabi/lib/thumb2\libcr_c.a(initio.o)
                                  0x4 (size before relaxing)
 .rodata.str1.1
                0x0000eedc       0x18 c:/code_red/redsuitenxp_4.0.6_249/redsuite/tools/bin/../lib/gcc/arm-none-eabi/4.5.1/../../../../arm-none-eabi/lib/thumb2\libcr_c.a(alloc.o)
                0x0000eef4                . = ALIGN (0x4)

.glue_7         0x0000eef4        0x0
 .glue_7        0x00000000        0x0 linker stubs

.glue_7t        0x0000eef4        0x0
 .glue_7t       0x00000000        0x0 linker stubs

.vfp11_veneer   0x0000eef4        0x0
 .vfp11_veneer  0x00000000        0x0 linker stubs

.v4_bx          0x0000eef4        0x0
 .v4_bx         0x00000000        0x0 linker stubs

.ARM.extab
 *(.ARM.extab* .gnu.linkonce.armextab.*)
                0x0000eef4                __exidx_start = .

.ARM.exidx
 *(.ARM.exidx* .gnu.linkonce.armexidx.*)
                0x0000eef4                __exidx_end = .
                0x0000eef4                _etext = .

.data_RAM2      0x2007c000        0x0 load address 0x0000eef4
 FILL mask 0xff
 *(.data.$RAM2*)
 *(.data.$RamAHB32*)
                0x2007c000                . = ALIGN (0x4)

.uninit_RESERVED
 *(.bss.$RESERVED*)

.data           0x10000000       0x38 load address 0x0000eef4
 FILL mask 0xff
                0x10000000                _data = .
 *(vtable)
 *(.data*)
 .data.pccSSITags
                0x10000000        0x8 ./Source/lwIP/lwIP_Apps/lwIP_Apps.o
 .data.iss.2508
                0x10000008        0x4 ./Source/lwIP/core/tcp.o
 .data.port.2376
                0x1000000c        0x2 ./Source/lwIP/core/tcp.o
 *fill*         0x1000000e        0x2 00
 .data.xFreeBytesRemaining
                0x10000010        0x4 ./Source/MemMang/heap_2.o
 .data.xRegisteredCommands
                0x10000014        0x8 ./Source/FreeRTOS-Products/FreeRTOS-Plus-CLI/FreeRTOS_CLI.o
 .data.pxLastCommandInList.1284
                0x1000001c        0x4 ./Source/FreeRTOS-Products/FreeRTOS-Plus-CLI/FreeRTOS_CLI.o
 .data.xNextTaskUnblockTime
                0x10000020        0x4 ./Source/FreeRTOS-Products/FreeRTOS/tasks.o
 .data.uxCriticalNesting
                0x10000024        0x4 ./Source/FreeRTOS-Products/FreeRTOS/portable/GCC/ARM_CM3/port.o
 .data.ulLEDBits
                0x10000028        0x8 ./Source/Examples/GPIO/GPIO-output-and-software-timers.o
                0x10000028                ulLEDBits
 .data.ucState.2873
                0x10000030        0x1 ./Source/Examples/GPIO/GPIO-output-and-software-timers.o
 *fill*         0x10000031        0x3 00
 .data.SystemCoreClock
                0x10000034        0x4 C:\Users\m.paffi.ATESISTEMI\Documents\CCTA-OS\CMSISv2p00_LPC17xx\Debug\libCMSISv2p00_LPC17xx.a(system_LPC17xx.o)
                0x10000034                SystemCoreClock
                0x10000038                . = ALIGN (0x4)
                0x10000038                _edata = .

.bss_RAM2       0x2007c000        0x0
 *(.bss.$RAM2*)
 *(.bss.$RamAHB32*)
                0x2007c000                . = ALIGN (0x4)

.bss            0x10000038     0x3aec
                0x10000038                _bss = .
 *(.bss*)
 .bss.ulEMACTxBufferStart
                0x10000038        0x4 ./Source/main.o
 .bss.ulEMACRxBufferStart
                0x1000003c        0x4 ./Source/main.o
 .bss.pucFreeRTOSHeap
                0x10000040        0x4 ./Source/main.o
                0x10000040                pucFreeRTOSHeap
 .bss.ulClocksPer10thOfAMilliSecond
                0x10000044        0x4 ./Source/main.o
 .bss.etharp_cached_entry
                0x10000048        0x1 ./Source/lwIP/netif/etharp.o
 *fill*         0x10000049        0x3 00
 .bss.arp_table
                0x1000004c       0xa0 ./Source/lwIP/netif/etharp.o
 .bss.pxNetIfInUse
                0x100000ec        0x4 ./Source/lwIP/netif/ethernetif.o
 .bss.xInsideISR
                0x100000f0        0x4 ./Source/lwIP/netif/sys_arch.o
                0x100000f0                xInsideISR
 .bss.xNetIf.2259
                0x100000f4       0x30 ./Source/lwIP/lwIP_Apps/lwIP_Apps.o
 .bss.uiUpdateCount.2266
                0x10000124        0x4 ./Source/lwIP/lwIP_Apps/lwIP_Apps.o
 .bss.cUpdateString.2267
                0x10000128       0xc8 ./Source/lwIP/lwIP_Apps/lwIP_Apps.o
 .bss.g_pfnSSIHandler
                0x100001f0        0x4 ./Source/lwIP/lwIP_Apps/apps/httpserver_raw/httpd.o
                0x100001f0                g_pfnSSIHandler
 .bss.g_ppcTags
                0x100001f4        0x4 ./Source/lwIP/lwIP_Apps/apps/httpserver_raw/httpd.o
                0x100001f4                g_ppcTags
 .bss.g_iNumTags
                0x100001f8        0x4 ./Source/lwIP/lwIP_Apps/apps/httpserver_raw/httpd.o
                0x100001f8                g_iNumTags
 .bss.cInputString.1742
                0x100001fc       0x22 ./Source/lwIP/lwIP_Apps/apps/BasicSocketCommandServer/BasicSocketCommandServer.o
 *fill*         0x1000021e        0x2 00
 .bss.tcpip_tcp_timer_active
                0x10000220        0x4 ./Source/lwIP/core/lwip_timers.o
 .bss.next_timeout
                0x10000224        0x4 ./Source/lwIP/core/lwip_timers.o
 .bss.lfree     0x10000228        0x4 ./Source/lwIP/core/mem.o
 .bss.ram_end   0x1000022c        0x4 ./Source/lwIP/core/mem.o
 .bss.mem_mutex
                0x10000230        0x4 ./Source/lwIP/core/mem.o
 .bss.ram       0x10000234        0x4 ./Source/lwIP/core/mem.o
 .bss.memp_memory
                0x10000238     0x19e3 ./Source/lwIP/core/memp.o
 *fill*         0x10001c1b        0x1 00
 .bss.memp_tab  0x10001c1c       0x2c ./Source/lwIP/core/memp.o
 .bss.netifnum.2254
                0x10001c48        0x1 ./Source/lwIP/core/netif.o
 .bss.tcp_timer
                0x10001c49        0x1 ./Source/lwIP/core/tcp.o
 *fill*         0x10001c4a        0x2 00
 .bss.seqno     0x10001c4c        0x4 ./Source/lwIP/core/tcp_in.o
 .bss.iphdr     0x10001c50        0x4 ./Source/lwIP/core/tcp_in.o
 .bss.tcplen    0x10001c54        0x2 ./Source/lwIP/core/tcp_in.o
 *fill*         0x10001c56        0x2 00
 .bss.ackno     0x10001c58        0x4 ./Source/lwIP/core/tcp_in.o
 .bss.flags     0x10001c5c        0x1 ./Source/lwIP/core/tcp_in.o
 .bss.recv_flags
                0x10001c5d        0x1 ./Source/lwIP/core/tcp_in.o
 *fill*         0x10001c5e        0x2 00
 .bss.tcphdr    0x10001c60        0x4 ./Source/lwIP/core/tcp_in.o
 .bss.recv_data
                0x10001c64        0x4 ./Source/lwIP/core/tcp_in.o
 .bss.inseg     0x10001c68       0x10 ./Source/lwIP/core/tcp_in.o
 .bss.ip_id     0x10001c78        0x2 ./Source/lwIP/core/ipv4/ip.o
 *fill*         0x10001c7a        0x2 00
 .bss.select_cb_list
                0x10001c7c        0x4 ./Source/lwIP/api/sockets.o
 .bss.sockets   0x10001c80       0xf0 ./Source/lwIP/api/sockets.o
 .bss.select_cb_ctr
                0x10001d70        0x4 ./Source/lwIP/api/sockets.o
 .bss.mbox      0x10001d74        0x4 ./Source/lwIP/api/tcpip.o
 .bss.tcpip_init_done_arg
                0x10001d78        0x4 ./Source/lwIP/api/tcpip.o
 .bss.tcpip_init_done
                0x10001d7c        0x4 ./Source/lwIP/api/tcpip.o
 .bss.xHeapHasBeenInitialised.1312
                0x10001d80        0x4 ./Source/MemMang/heap_2.o
 .bss.xStart    0x10001d84        0x8 ./Source/MemMang/heap_2.o
 .bss.xEnd      0x10001d8c        0x8 ./Source/MemMang/heap_2.o
 .bss.ulReceiveActive
                0x10001d94        0x8 ./Source/FreeRTOS-Products/FreeRTOS-Plus-IO/Device/LPC17xx/FreeRTOS_lpc17xx_ssp.o
 .bss.pxRxTransferControlStructs
                0x10001d9c        0x8 ./Source/FreeRTOS-Products/FreeRTOS-Plus-IO/Device/LPC17xx/FreeRTOS_lpc17xx_ssp.o
 .bss.pxTxTransferControlStructs
                0x10001da4        0x8 ./Source/FreeRTOS-Products/FreeRTOS-Plus-IO/Device/LPC17xx/FreeRTOS_lpc17xx_ssp.o
 .bss.cOutputBuffer
                0x10001dac      0x400 ./Source/FreeRTOS-Products/FreeRTOS-Plus-CLI/FreeRTOS_CLI.o
 .bss.pxCommand.1294
                0x100021ac        0x4 ./Source/FreeRTOS-Products/FreeRTOS-Plus-CLI/FreeRTOS_CLI.o
 .bss.pxCommand.1327
                0x100021b0        0x4 ./Source/FreeRTOS-Products/FreeRTOS-Plus-CLI/FreeRTOS_CLI.o
 .bss.xPendingReadyList
                0x100021b4       0x14 ./Source/FreeRTOS-Products/FreeRTOS/tasks.o
 .bss.uxTopReadyPriority
                0x100021c8        0x4 ./Source/FreeRTOS-Products/FreeRTOS/tasks.o
 .bss.uxTasksDeleted
                0x100021cc        0x4 ./Source/FreeRTOS-Products/FreeRTOS/tasks.o
 .bss.xTickCount
                0x100021d0        0x4 ./Source/FreeRTOS-Products/FreeRTOS/tasks.o
 .bss.pxReadyTasksLists
                0x100021d4       0x64 ./Source/FreeRTOS-Products/FreeRTOS/tasks.o
 .bss.pxOverflowDelayedTaskList
                0x10002238        0x4 ./Source/FreeRTOS-Products/FreeRTOS/tasks.o
 .bss.uxTCBNumber
                0x1000223c        0x4 ./Source/FreeRTOS-Products/FreeRTOS/tasks.o
 .bss.pxDelayedTaskList
                0x10002240        0x4 ./Source/FreeRTOS-Products/FreeRTOS/tasks.o
 .bss.uxCurrentNumberOfTasks
                0x10002244        0x4 ./Source/FreeRTOS-Products/FreeRTOS/tasks.o
 .bss.xSchedulerRunning
                0x10002248        0x4 ./Source/FreeRTOS-Products/FreeRTOS/tasks.o
 .bss.ulTaskSwitchedInTime
                0x1000224c        0x4 ./Source/FreeRTOS-Products/FreeRTOS/tasks.o
 .bss.xMissedYield
                0x10002250        0x4 ./Source/FreeRTOS-Products/FreeRTOS/tasks.o
 .bss.pxCurrentTCB
                0x10002254        0x4 ./Source/FreeRTOS-Products/FreeRTOS/tasks.o
                0x10002254                pxCurrentTCB
 .bss.pcStatsString
                0x10002258       0x32 ./Source/FreeRTOS-Products/FreeRTOS/tasks.o
 .bss.pcStatusString.1859
                0x1000228a       0x32 ./Source/FreeRTOS-Products/FreeRTOS/tasks.o
 .bss.xSuspendedTaskList
                0x100022bc       0x14 ./Source/FreeRTOS-Products/FreeRTOS/tasks.o
 .bss.xDelayedTaskList1
                0x100022d0       0x14 ./Source/FreeRTOS-Products/FreeRTOS/tasks.o
 .bss.xDelayedTaskList2
                0x100022e4       0x14 ./Source/FreeRTOS-Products/FreeRTOS/tasks.o
 .bss.xTasksWaitingTermination
                0x100022f8       0x14 ./Source/FreeRTOS-Products/FreeRTOS/tasks.o
 .bss.uxSchedulerSuspended
                0x1000230c        0x4 ./Source/FreeRTOS-Products/FreeRTOS/tasks.o
 .bss.uxMissedTicks
                0x10002310        0x4 ./Source/FreeRTOS-Products/FreeRTOS/tasks.o
 .bss.xNumOfOverflows
                0x10002314        0x4 ./Source/FreeRTOS-Products/FreeRTOS/tasks.o
 .bss.uxTopUsedPriority
                0x10002318        0x4 ./Source/FreeRTOS-Products/FreeRTOS/tasks.o
 .bss.pxCurrentTimerList
                0x1000231c        0x4 ./Source/FreeRTOS-Products/FreeRTOS/timers.o
 .bss.xActiveTimerList1
                0x10002320       0x14 ./Source/FreeRTOS-Products/FreeRTOS/timers.o
 .bss.xActiveTimerList2
                0x10002334       0x14 ./Source/FreeRTOS-Products/FreeRTOS/timers.o
 .bss.xLastTime.1368
                0x10002348        0x4 ./Source/FreeRTOS-Products/FreeRTOS/timers.o
 .bss.xTimerQueue
                0x1000234c        0x4 ./Source/FreeRTOS-Products/FreeRTOS/timers.o
 .bss.pxOverflowTimerList
                0x10002350        0x4 ./Source/FreeRTOS-Products/FreeRTOS/timers.o
 .bss.ucLED.2872
                0x10002354        0x1 ./Source/Examples/GPIO/GPIO-output-and-software-timers.o
 *fill*         0x10002355        0x3 00
 .bss.xGPIOTimer
                0x10002358        0x4 ./Source/Examples/GPIO/GPIO-output-and-software-timers.o
 .bss.Rx_Desc   0x1000235c       0x20 C:\Users\m.paffi.ATESISTEMI\Documents\CCTA-OS\lpc17xx.cmsis.driver.library\Debug\liblpc17xx.cmsis.driver.library.a(lpc17xx_emac.o)
 *fill*         0x1000237c        0x4 00
 .bss.Rx_Stat   0x10002380       0x20 C:\Users\m.paffi.ATESISTEMI\Documents\CCTA-OS\lpc17xx.cmsis.driver.library\Debug\liblpc17xx.cmsis.driver.library.a(lpc17xx_emac.o)
 .bss.Tx_Desc   0x100023a0       0x18 C:\Users\m.paffi.ATESISTEMI\Documents\CCTA-OS\lpc17xx.cmsis.driver.library\Debug\liblpc17xx.cmsis.driver.library.a(lpc17xx_emac.o)
 .bss.Tx_Stat   0x100023b8        0xc C:\Users\m.paffi.ATESISTEMI\Documents\CCTA-OS\lpc17xx.cmsis.driver.library\Debug\liblpc17xx.cmsis.driver.library.a(lpc17xx_emac.o)
 .bss.errno     0x100023c4        0x4 c:/code_red/redsuitenxp_4.0.6_249/redsuite/tools/bin/../lib/gcc/arm-none-eabi/4.5.1/../../../../arm-none-eabi/lib/thumb2\libcr_c.a(errno.o)
                0x100023c4                errno
 *(COMMON)
 COMMON         0x100023c8       0xf0 ./Source/lwIP/lwIP_Apps/apps/httpserver_raw/fs.o
                0x100023c8                fs_memory
 COMMON         0x100024b8     0x1414 ./Source/lwIP/core/mem.o
                0x100024b8                ram_heap
 COMMON         0x100038cc        0x8 ./Source/lwIP/core/netif.o
                0x100038cc                netif_list
                0x100038d0                netif_default
 COMMON         0x100038d4       0x18 ./Source/lwIP/core/tcp.o
                0x100038d4                tcp_active_pcbs
                0x100038d8                tcp_ticks
                0x100038dc                tcp_listen_pcbs
                0x100038e0                tcp_tmp_pcb
                0x100038e4                tcp_bound_pcbs
                0x100038e8                tcp_tw_pcbs
 COMMON         0x100038ec        0x4 ./Source/lwIP/core/tcp_in.o
                0x100038ec                tcp_input_pcb
 COMMON         0x100038f0       0x10 ./Source/lwIP/core/ipv4/ip.o
                0x100038f0                current_iphdr_src
                0x100038f4                current_netif
                0x100038f8                current_iphdr_dest
                0x100038fc                current_header
 COMMON         0x10003900       0x50 ./Source/FreeRTOS-Products/FreeRTOS/queue.o
                0x10003900                xQueueRegistry
 COMMON         0x10003950        0x4 c:/code_red/redsuitenxp_4.0.6_249/redsuite/tools/bin/../lib/gcc/arm-none-eabi/4.5.1/../../../../arm-none-eabi/lib/thumb2\libcr_c.a(initio.o)
                0x10003950                _extra
 COMMON         0x10003954      0x140 c:/code_red/redsuitenxp_4.0.6_249/redsuite/tools/bin/../lib/gcc/arm-none-eabi/4.5.1/../../../../arm-none-eabi/lib/thumb2\libcr_c.a(stdio.o)
                0x10003954                __Ciob
 COMMON         0x10003a94       0x88 c:/code_red/redsuitenxp_4.0.6_249/redsuite/tools/bin/../lib/gcc/arm-none-eabi/4.5.1/../../../../arm-none-eabi/lib/thumb2\libcr_c.a(stdlib.o)
                0x10003a94                _exitvector
                0x10003b18                _number_of_exit_functions
 COMMON         0x10003b1c        0x8 c:/code_red/redsuitenxp_4.0.6_249/redsuite/tools/bin/../lib/gcc/arm-none-eabi/4.5.1/../../../../arm-none-eabi/lib/thumb2\libcr_c.a(__init_alloc.o)
                0x10003b1c                __heaps
                0x10003b20                __end_of_heap
                0x10003b24                . = ALIGN (0x4)
                0x10003b24                _ebss = .
                0x10003b24                PROVIDE (end, .)
                0x10003b24                PROVIDE (_pvHeapStart, .)
                0x10008000                PROVIDE (_vStackTop, (__top_RamLoc32 - 0x0))
OUTPUT(FreeRTOS-Plus-Demo-2.axf elf32-littlearm)

.debug_abbrev   0x00000000     0x6d14
 .debug_abbrev  0x00000000      0x125 ./Source/cr_startup_lpc176x.o
 .debug_abbrev  0x00000125      0x2c3 ./Source/main.o
 .debug_abbrev  0x000003e8      0x19a ./Source/printf-stdarg.o
 .debug_abbrev  0x00000582      0x2cc ./Source/lwIP/netif/etharp.o
 .debug_abbrev  0x0000084e      0x326 ./Source/lwIP/netif/ethernetif.o
 .debug_abbrev  0x00000b74      0x1ae ./Source/lwIP/netif/sys_arch.o
 .debug_abbrev  0x00000d22      0x117 ./Source/lwIP/lwIP_Apps/lwIP_Apps.o
 .debug_abbrev  0x00000e39      0x1f5 ./Source/lwIP/lwIP_Apps/apps/httpserver_raw/fs.o
 .debug_abbrev  0x0000102e      0x2c1 ./Source/lwIP/lwIP_Apps/apps/httpserver_raw/httpd.o
 .debug_abbrev  0x000012ef       0xcd ./Source/lwIP/lwIP_Apps/apps/BasicSocketCommandServer/BasicSocketCommandServer.o
 .debug_abbrev  0x000013bc       0x89 ./Source/lwIP/core/def.o
 .debug_abbrev  0x00001445       0x2c ./Source/lwIP/core/dhcp.o
 .debug_abbrev  0x00001471       0x2c ./Source/lwIP/core/dns.o
 .debug_abbrev  0x0000149d       0x43 ./Source/lwIP/core/init.o
 .debug_abbrev  0x000014e0      0x19c ./Source/lwIP/core/lwip_timers.o
 .debug_abbrev  0x0000167c      0x195 ./Source/lwIP/core/mem.o
 .debug_abbrev  0x00001811      0x129 ./Source/lwIP/core/memp.o
 .debug_abbrev  0x0000193a      0x255 ./Source/lwIP/core/netif.o
 .debug_abbrev  0x00001b8f      0x1a0 ./Source/lwIP/core/pbuf.o
 .debug_abbrev  0x00001d2f       0x2c ./Source/lwIP/core/raw.o
 .debug_abbrev  0x00001d5b       0x2c ./Source/lwIP/core/stats.o
 .debug_abbrev  0x00001d87       0x8d ./Source/lwIP/core/sys.o
 .debug_abbrev  0x00001e14      0x39b ./Source/lwIP/core/tcp.o
 .debug_abbrev  0x000021af      0x2b0 ./Source/lwIP/core/tcp_in.o
 .debug_abbrev  0x0000245f      0x32e ./Source/lwIP/core/tcp_out.o
 .debug_abbrev  0x0000278d       0x2c ./Source/lwIP/core/udp.o
 .debug_abbrev  0x000027b9       0x2c ./Source/lwIP/core/ipv4/autoip.o
 .debug_abbrev  0x000027e5      0x1f1 ./Source/lwIP/core/ipv4/icmp.o
 .debug_abbrev  0x000029d6       0x2c ./Source/lwIP/core/ipv4/igmp.o
 .debug_abbrev  0x00002a02       0x2c ./Source/lwIP/core/ipv4/inet.o
 .debug_abbrev  0x00002a2e      0x146 ./Source/lwIP/core/ipv4/inet_chksum.o
 .debug_abbrev  0x00002b74      0x1ce ./Source/lwIP/core/ipv4/ip.o
 .debug_abbrev  0x00002d42      0x1f5 ./Source/lwIP/core/ipv4/ip_addr.o
 .debug_abbrev  0x00002f37       0x2c ./Source/lwIP/core/ipv4/ip_frag.o
 .debug_abbrev  0x00002f63      0x252 ./Source/lwIP/api/api_lib.o
 .debug_abbrev  0x000031b5      0x28d ./Source/lwIP/api/api_msg.o
 .debug_abbrev  0x00003442       0x2c ./Source/lwIP/api/err.o
 .debug_abbrev  0x0000346e      0x105 ./Source/lwIP/api/netbuf.o
 .debug_abbrev  0x00003573       0x2c ./Source/lwIP/api/netdb.o
 .debug_abbrev  0x0000359f       0x2c ./Source/lwIP/api/netifapi.o
 .debug_abbrev  0x000035cb      0x32f ./Source/lwIP/api/sockets.o
 .debug_abbrev  0x000038fa      0x23b ./Source/lwIP/api/tcpip.o
 .debug_abbrev  0x00003b35      0x169 ./Source/MemMang/heap_2.o
 .debug_abbrev  0x00003c9e       0xd4 ./Source/FreeRTOS-Products/FreeRTOS-Plus-IO/Device/LPC17xx/FreeRTOS_lpc17xx_DriverInterface.o
 .debug_abbrev  0x00003d72      0x2b8 ./Source/FreeRTOS-Products/FreeRTOS-Plus-IO/Device/LPC17xx/FreeRTOS_lpc17xx_i2c.o
 .debug_abbrev  0x0000402a      0x2b7 ./Source/FreeRTOS-Products/FreeRTOS-Plus-IO/Device/LPC17xx/FreeRTOS_lpc17xx_ssp.o
 .debug_abbrev  0x000042e1      0x2b0 ./Source/FreeRTOS-Products/FreeRTOS-Plus-IO/Device/LPC17xx/FreeRTOS_lpc17xx_uart.o
 .debug_abbrev  0x00004591      0x184 ./Source/FreeRTOS-Products/FreeRTOS-Plus-IO/Common/FreeRTOS_DriverInterface.o
 .debug_abbrev  0x00004715       0xb2 ./Source/FreeRTOS-Products/FreeRTOS-Plus-IO/Common/FreeRTOS_IOUtils.o
 .debug_abbrev  0x000047c7      0x12d ./Source/FreeRTOS-Products/FreeRTOS-Plus-IO/Common/IOUtils_CharQueueTxAndRx.o
 .debug_abbrev  0x000048f4      0x12d ./Source/FreeRTOS-Products/FreeRTOS-Plus-IO/Common/IOUtils_CircularBufferRx.o
 .debug_abbrev  0x00004a21       0xf8 ./Source/FreeRTOS-Products/FreeRTOS-Plus-IO/Common/IOUtils_ZeroCopyTx.o
 .debug_abbrev  0x00004b19      0x183 ./Source/FreeRTOS-Products/FreeRTOS-Plus-CLI/FreeRTOS_CLI.o
 .debug_abbrev  0x00004c9c      0x1ef ./Source/FreeRTOS-Products/FreeRTOS/croutine.o
 .debug_abbrev  0x00004e8b       0xef ./Source/FreeRTOS-Products/FreeRTOS/list.o
 .debug_abbrev  0x00004f7a      0x1ec ./Source/FreeRTOS-Products/FreeRTOS/queue.o
 .debug_abbrev  0x00005166      0x27f ./Source/FreeRTOS-Products/FreeRTOS/tasks.o
 .debug_abbrev  0x000053e5      0x203 ./Source/FreeRTOS-Products/FreeRTOS/timers.o
 .debug_abbrev  0x000055e8      0x123 ./Source/FreeRTOS-Products/FreeRTOS/portable/GCC/ARM_CM3/port.o
 .debug_abbrev  0x0000570b      0x26d ./Source/FatFS/ff.o
 .debug_abbrev  0x00005978      0x280 ./Source/FatFS/mmc.o
 .debug_abbrev  0x00005bf8       0xdd ./Source/FatFS/syscall.o
 .debug_abbrev  0x00005cd5      0x1fc ./Source/Examples/SSP/SPI-interface-to-SD-card.o
 .debug_abbrev  0x00005ed1       0xee ./Source/Examples/GPIO/GPIO-output-and-software-timers.o
 .debug_abbrev  0x00005fbf      0x200 C:\Users\m.paffi.ATESISTEMI\Documents\CCTA-OS\lpc17xx.cmsis.driver.library\Debug\liblpc17xx.cmsis.driver.library.a(lpc17xx_emac.o)
 .debug_abbrev  0x000061bf      0x1cb C:\Users\m.paffi.ATESISTEMI\Documents\CCTA-OS\lpc17xx.cmsis.driver.library\Debug\liblpc17xx.cmsis.driver.library.a(lpc17xx_gpio.o)
 .debug_abbrev  0x0000638a      0x21a C:\Users\m.paffi.ATESISTEMI\Documents\CCTA-OS\lpc17xx.cmsis.driver.library\Debug\liblpc17xx.cmsis.driver.library.a(lpc17xx_i2c.o)
 .debug_abbrev  0x000065a4       0x6a C:\Users\m.paffi.ATESISTEMI\Documents\CCTA-OS\lpc17xx.cmsis.driver.library\Debug\liblpc17xx.cmsis.driver.library.a(lpc17xx_libcfg_default.o)
 .debug_abbrev  0x0000660e      0x11f C:\Users\m.paffi.ATESISTEMI\Documents\CCTA-OS\lpc17xx.cmsis.driver.library\Debug\liblpc17xx.cmsis.driver.library.a(lpc17xx_pinsel.o)
 .debug_abbrev  0x0000672d      0x19d C:\Users\m.paffi.ATESISTEMI\Documents\CCTA-OS\lpc17xx.cmsis.driver.library\Debug\liblpc17xx.cmsis.driver.library.a(lpc17xx_ssp.o)
 .debug_abbrev  0x000068ca      0x1d0 C:\Users\m.paffi.ATESISTEMI\Documents\CCTA-OS\lpc17xx.cmsis.driver.library\Debug\liblpc17xx.cmsis.driver.library.a(lpc17xx_uart.o)
 .debug_abbrev  0x00006a9a      0x197 C:\Users\m.paffi.ATESISTEMI\Documents\CCTA-OS\lpc17xx.cmsis.driver.library\Debug\liblpc17xx.cmsis.driver.library.a(lpc17xx_clkpwr.o)
 .debug_abbrev  0x00006c31       0xe3 C:\Users\m.paffi.ATESISTEMI\Documents\CCTA-OS\CMSISv2p00_LPC17xx\Debug\libCMSISv2p00_LPC17xx.a(system_LPC17xx.o)

.debug_info     0x00000000    0x21c73
 .debug_info    0x00000000      0x391 ./Source/cr_startup_lpc176x.o
 .debug_info    0x00000391      0x6cf ./Source/main.o
 .debug_info    0x00000a60      0x3ff ./Source/printf-stdarg.o
 .debug_info    0x00000e5f      0xcbc ./Source/lwIP/netif/etharp.o
 .debug_info    0x00001b1b      0xf6a ./Source/lwIP/netif/ethernetif.o
 .debug_info    0x00002a85      0x6b5 ./Source/lwIP/netif/sys_arch.o
 .debug_info    0x0000313a      0x417 ./Source/lwIP/lwIP_Apps/lwIP_Apps.o
 .debug_info    0x00003551      0x4ac ./Source/lwIP/lwIP_Apps/apps/httpserver_raw/fs.o
 .debug_info    0x000039fd     0x11e2 ./Source/lwIP/lwIP_Apps/apps/httpserver_raw/httpd.o
 .debug_info    0x00004bdf      0x287 ./Source/lwIP/lwIP_Apps/apps/BasicSocketCommandServer/BasicSocketCommandServer.o
 .debug_info    0x00004e66      0x131 ./Source/lwIP/core/def.o
 .debug_info    0x00004f97       0x77 ./Source/lwIP/core/dhcp.o
 .debug_info    0x0000500e       0x77 ./Source/lwIP/core/dns.o
 .debug_info    0x00005085       0x98 ./Source/lwIP/core/init.o
 .debug_info    0x0000511d      0x95f ./Source/lwIP/core/lwip_timers.o
 .debug_info    0x00005a7c      0x3fe ./Source/lwIP/core/mem.o
 .debug_info    0x00005e7a      0x2af ./Source/lwIP/core/memp.o
 .debug_info    0x00006129      0xc9d ./Source/lwIP/core/netif.o
 .debug_info    0x00006dc6      0x91b ./Source/lwIP/core/pbuf.o
 .debug_info    0x000076e1       0x77 ./Source/lwIP/core/raw.o
 .debug_info    0x00007758       0x77 ./Source/lwIP/core/stats.o
 .debug_info    0x000077cf      0x10a ./Source/lwIP/core/sys.o
 .debug_info    0x000078d9     0x153b ./Source/lwIP/core/tcp.o
 .debug_info    0x00008e14      0xe6d ./Source/lwIP/core/tcp_in.o
 .debug_info    0x00009c81     0x1170 ./Source/lwIP/core/tcp_out.o
 .debug_info    0x0000adf1       0x77 ./Source/lwIP/core/udp.o
 .debug_info    0x0000ae68       0x77 ./Source/lwIP/core/ipv4/autoip.o
 .debug_info    0x0000aedf      0x640 ./Source/lwIP/core/ipv4/icmp.o
 .debug_info    0x0000b51f       0x77 ./Source/lwIP/core/ipv4/igmp.o
 .debug_info    0x0000b596       0x77 ./Source/lwIP/core/ipv4/inet.o
 .debug_info    0x0000b60d      0x3eb ./Source/lwIP/core/ipv4/inet_chksum.o
 .debug_info    0x0000b9f8      0x6a2 ./Source/lwIP/core/ipv4/ip.o
 .debug_info    0x0000c09a      0x59c ./Source/lwIP/core/ipv4/ip_addr.o
 .debug_info    0x0000c636       0x7e ./Source/lwIP/core/ipv4/ip_frag.o
 .debug_info    0x0000c6b4     0x1257 ./Source/lwIP/api/api_lib.o
 .debug_info    0x0000d90b     0x1193 ./Source/lwIP/api/api_msg.o
 .debug_info    0x0000ea9e       0x77 ./Source/lwIP/api/err.o
 .debug_info    0x0000eb15      0x417 ./Source/lwIP/api/netbuf.o
 .debug_info    0x0000ef2c       0x77 ./Source/lwIP/api/netdb.o
 .debug_info    0x0000efa3       0x77 ./Source/lwIP/api/netifapi.o
 .debug_info    0x0000f01a     0x1d30 ./Source/lwIP/api/sockets.o
 .debug_info    0x00010d4a      0xb8f ./Source/lwIP/api/tcpip.o
 .debug_info    0x000118d9      0x2ac ./Source/MemMang/heap_2.o
 .debug_info    0x00011b85      0x2d9 ./Source/FreeRTOS-Products/FreeRTOS-Plus-IO/Device/LPC17xx/FreeRTOS_lpc17xx_DriverInterface.o
 .debug_info    0x00011e5e      0xee0 ./Source/FreeRTOS-Products/FreeRTOS-Plus-IO/Device/LPC17xx/FreeRTOS_lpc17xx_i2c.o
 .debug_info    0x00012d3e     0x106b ./Source/FreeRTOS-Products/FreeRTOS-Plus-IO/Device/LPC17xx/FreeRTOS_lpc17xx_ssp.o
 .debug_info    0x00013da9      0xe5a ./Source/FreeRTOS-Products/FreeRTOS-Plus-IO/Device/LPC17xx/FreeRTOS_lpc17xx_uart.o
 .debug_info    0x00014c03      0x769 ./Source/FreeRTOS-Products/FreeRTOS-Plus-IO/Common/FreeRTOS_DriverInterface.o
 .debug_info    0x0001536c      0x280 ./Source/FreeRTOS-Products/FreeRTOS-Plus-IO/Common/FreeRTOS_IOUtils.o
 .debug_info    0x000155ec      0x61f ./Source/FreeRTOS-Products/FreeRTOS-Plus-IO/Common/IOUtils_CharQueueTxAndRx.o
 .debug_info    0x00015c0b      0x4c2 ./Source/FreeRTOS-Products/FreeRTOS-Plus-IO/Common/IOUtils_CircularBufferRx.o
 .debug_info    0x000160cd      0x425 ./Source/FreeRTOS-Products/FreeRTOS-Plus-IO/Common/IOUtils_ZeroCopyTx.o
 .debug_info    0x000164f2      0x402 ./Source/FreeRTOS-Products/FreeRTOS-Plus-CLI/FreeRTOS_CLI.o
 .debug_info    0x000168f4      0x52e ./Source/FreeRTOS-Products/FreeRTOS/croutine.o
 .debug_info    0x00016e22      0x2a6 ./Source/FreeRTOS-Products/FreeRTOS/list.o
 .debug_info    0x000170c8      0xae3 ./Source/FreeRTOS-Products/FreeRTOS/queue.o
 .debug_info    0x00017bab     0x126c ./Source/FreeRTOS-Products/FreeRTOS/tasks.o
 .debug_info    0x00018e17      0x833 ./Source/FreeRTOS-Products/FreeRTOS/timers.o
 .debug_info    0x0001964a      0x22b ./Source/FreeRTOS-Products/FreeRTOS/portable/GCC/ARM_CM3/port.o
 .debug_info    0x00019875     0x18a7 ./Source/FatFS/ff.o
 .debug_info    0x0001b11c      0x9af ./Source/FatFS/mmc.o
 .debug_info    0x0001bacb      0x1a2 ./Source/FatFS/syscall.o
 .debug_info    0x0001bc6d      0x9ae ./Source/Examples/SSP/SPI-interface-to-SD-card.o
 .debug_info    0x0001c61b      0x1d2 ./Source/Examples/GPIO/GPIO-output-and-software-timers.o
 .debug_info    0x0001c7ed      0xe47 C:\Users\m.paffi.ATESISTEMI\Documents\CCTA-OS\lpc17xx.cmsis.driver.library\Debug\liblpc17xx.cmsis.driver.library.a(lpc17xx_emac.o)
 .debug_info    0x0001d634      0xe30 C:\Users\m.paffi.ATESISTEMI\Documents\CCTA-OS\lpc17xx.cmsis.driver.library\Debug\liblpc17xx.cmsis.driver.library.a(lpc17xx_gpio.o)
 .debug_info    0x0001e464      0xdba C:\Users\m.paffi.ATESISTEMI\Documents\CCTA-OS\lpc17xx.cmsis.driver.library\Debug\liblpc17xx.cmsis.driver.library.a(lpc17xx_i2c.o)
 .debug_info    0x0001f21e       0xd4 C:\Users\m.paffi.ATESISTEMI\Documents\CCTA-OS\lpc17xx.cmsis.driver.library\Debug\liblpc17xx.cmsis.driver.library.a(lpc17xx_libcfg_default.o)
 .debug_info    0x0001f2f2      0x4b9 C:\Users\m.paffi.ATESISTEMI\Documents\CCTA-OS\lpc17xx.cmsis.driver.library\Debug\liblpc17xx.cmsis.driver.library.a(lpc17xx_pinsel.o)
 .debug_info    0x0001f7ab      0x78c C:\Users\m.paffi.ATESISTEMI\Documents\CCTA-OS\lpc17xx.cmsis.driver.library\Debug\liblpc17xx.cmsis.driver.library.a(lpc17xx_ssp.o)
 .debug_info    0x0001ff37     0x12d6 C:\Users\m.paffi.ATESISTEMI\Documents\CCTA-OS\lpc17xx.cmsis.driver.library\Debug\liblpc17xx.cmsis.driver.library.a(lpc17xx_uart.o)
 .debug_info    0x0002120d      0x6d7 C:\Users\m.paffi.ATESISTEMI\Documents\CCTA-OS\lpc17xx.cmsis.driver.library\Debug\liblpc17xx.cmsis.driver.library.a(lpc17xx_clkpwr.o)
 .debug_info    0x000218e4      0x38f C:\Users\m.paffi.ATESISTEMI\Documents\CCTA-OS\CMSISv2p00_LPC17xx\Debug\libCMSISv2p00_LPC17xx.a(system_LPC17xx.o)

.debug_line     0x00000000    0x26a12
 .debug_line    0x00000000      0x408 ./Source/cr_startup_lpc176x.o
 .debug_line    0x00000408      0xc52 ./Source/main.o
 .debug_line    0x0000105a      0x467 ./Source/printf-stdarg.o
 .debug_line    0x000014c1      0xae8 ./Source/lwIP/netif/etharp.o
 .debug_line    0x00001fa9      0xbcf ./Source/lwIP/netif/ethernetif.o
 .debug_line    0x00002b78      0x8ec ./Source/lwIP/netif/sys_arch.o
 .debug_line    0x00003464      0x8ba ./Source/lwIP/lwIP_Apps/lwIP_Apps.o
 .debug_line    0x00003d1e      0x782 ./Source/lwIP/lwIP_Apps/apps/httpserver_raw/fs.o
 .debug_line    0x000044a0      0xbe4 ./Source/lwIP/lwIP_Apps/apps/httpserver_raw/httpd.o
 .debug_line    0x00005084      0x845 ./Source/lwIP/lwIP_Apps/apps/BasicSocketCommandServer/BasicSocketCommandServer.o
 .debug_line    0x000058c9      0x6e7 ./Source/lwIP/core/def.o
 .debug_line    0x00005fb0      0x698 ./Source/lwIP/core/dhcp.o
 .debug_line    0x00006648      0x697 ./Source/lwIP/core/dns.o
 .debug_line    0x00006cdf      0x8ba ./Source/lwIP/core/init.o
 .debug_line    0x00007599      0x9a9 ./Source/lwIP/core/lwip_timers.o
 .debug_line    0x00007f42      0x8bc ./Source/lwIP/core/mem.o
 .debug_line    0x000087fe      0x983 ./Source/lwIP/core/memp.o
 .debug_line    0x00009181      0x9e4 ./Source/lwIP/core/netif.o
 .debug_line    0x00009b65      0xba0 ./Source/lwIP/core/pbuf.o
 .debug_line    0x0000a705      0x697 ./Source/lwIP/core/raw.o
 .debug_line    0x0000ad9c      0x699 ./Source/lwIP/core/stats.o
 .debug_line    0x0000b435      0x6e3 ./Source/lwIP/core/sys.o
 .debug_line    0x0000bb18      0xded ./Source/lwIP/core/tcp.o
 .debug_line    0x0000c905      0xc10 ./Source/lwIP/core/tcp_in.o
 .debug_line    0x0000d515      0xcb0 ./Source/lwIP/core/tcp_out.o
 .debug_line    0x0000e1c5      0x697 ./Source/lwIP/core/udp.o
 .debug_line    0x0000e85c      0x69f ./Source/lwIP/core/ipv4/autoip.o
 .debug_line    0x0000eefb      0x85f ./Source/lwIP/core/ipv4/icmp.o
 .debug_line    0x0000f75a      0x69d ./Source/lwIP/core/ipv4/igmp.o
 .debug_line    0x0000fdf7      0x71e ./Source/lwIP/core/ipv4/inet.o
 .debug_line    0x00010515      0x858 ./Source/lwIP/core/ipv4/inet_chksum.o
 .debug_line    0x00010d6d      0x995 ./Source/lwIP/core/ipv4/ip.o
 .debug_line    0x00011702      0x868 ./Source/lwIP/core/ipv4/ip_addr.o
 .debug_line    0x00011f6a      0x7b3 ./Source/lwIP/core/ipv4/ip_frag.o
 .debug_line    0x0001271d      0xb76 ./Source/lwIP/api/api_lib.o
 .debug_line    0x00013293      0xde1 ./Source/lwIP/api/api_msg.o
 .debug_line    0x00014074      0x69f ./Source/lwIP/api/err.o
 .debug_line    0x00014713      0x8a5 ./Source/lwIP/api/netbuf.o
 .debug_line    0x00014fb8      0x6a3 ./Source/lwIP/api/netdb.o
 .debug_line    0x0001565b      0x69b ./Source/lwIP/api/netifapi.o
 .debug_line    0x00015cf6      0xfc9 ./Source/lwIP/api/sockets.o
 .debug_line    0x00016cbf      0x98c ./Source/lwIP/api/tcpip.o
 .debug_line    0x0001764b      0x548 ./Source/MemMang/heap_2.o
 .debug_line    0x00017b93      0x5d0 ./Source/FreeRTOS-Products/FreeRTOS-Plus-IO/Device/LPC17xx/FreeRTOS_lpc17xx_DriverInterface.o
 .debug_line    0x00018163      0x998 ./Source/FreeRTOS-Products/FreeRTOS-Plus-IO/Device/LPC17xx/FreeRTOS_lpc17xx_i2c.o
 .debug_line    0x00018afb      0xaa3 ./Source/FreeRTOS-Products/FreeRTOS-Plus-IO/Device/LPC17xx/FreeRTOS_lpc17xx_ssp.o
 .debug_line    0x0001959e      0x974 ./Source/FreeRTOS-Products/FreeRTOS-Plus-IO/Device/LPC17xx/FreeRTOS_lpc17xx_uart.o
 .debug_line    0x00019f12      0x871 ./Source/FreeRTOS-Products/FreeRTOS-Plus-IO/Common/FreeRTOS_DriverInterface.o
 .debug_line    0x0001a783      0x619 ./Source/FreeRTOS-Products/FreeRTOS-Plus-IO/Common/FreeRTOS_IOUtils.o
 .debug_line    0x0001ad9c      0x6eb ./Source/FreeRTOS-Products/FreeRTOS-Plus-IO/Common/IOUtils_CharQueueTxAndRx.o
 .debug_line    0x0001b487      0x6c6 ./Source/FreeRTOS-Products/FreeRTOS-Plus-IO/Common/IOUtils_CircularBufferRx.o
 .debug_line    0x0001bb4d      0x667 ./Source/FreeRTOS-Products/FreeRTOS-Plus-IO/Common/IOUtils_ZeroCopyTx.o
 .debug_line    0x0001c1b4      0x5e9 ./Source/FreeRTOS-Products/FreeRTOS-Plus-CLI/FreeRTOS_CLI.o
 .debug_line    0x0001c79d      0x599 ./Source/FreeRTOS-Products/FreeRTOS/croutine.o
 .debug_line    0x0001cd36      0x54d ./Source/FreeRTOS-Products/FreeRTOS/list.o
 .debug_line    0x0001d283      0x8aa ./Source/FreeRTOS-Products/FreeRTOS/queue.o
 .debug_line    0x0001db2d      0xb4f ./Source/FreeRTOS-Products/FreeRTOS/tasks.o
 .debug_line    0x0001e67c      0x62d ./Source/FreeRTOS-Products/FreeRTOS/timers.o
 .debug_line    0x0001eca9      0x598 ./Source/FreeRTOS-Products/FreeRTOS/portable/GCC/ARM_CM3/port.o
 .debug_line    0x0001f241      0xfa4 ./Source/FatFS/ff.o
 .debug_line    0x000201e5      0xa18 ./Source/FatFS/mmc.o
 .debug_line    0x00020bfd      0x52a ./Source/FatFS/syscall.o
 .debug_line    0x00021127      0xa48 ./Source/Examples/SSP/SPI-interface-to-SD-card.o
 .debug_line    0x00021b6f      0x818 ./Source/Examples/GPIO/GPIO-output-and-software-timers.o
 .debug_line    0x00022387      0x994 C:\Users\m.paffi.ATESISTEMI\Documents\CCTA-OS\lpc17xx.cmsis.driver.library\Debug\liblpc17xx.cmsis.driver.library.a(lpc17xx_emac.o)
 .debug_line    0x00022d1b      0x8a1 C:\Users\m.paffi.ATESISTEMI\Documents\CCTA-OS\lpc17xx.cmsis.driver.library\Debug\liblpc17xx.cmsis.driver.library.a(lpc17xx_gpio.o)
 .debug_line    0x000235bc      0xadf C:\Users\m.paffi.ATESISTEMI\Documents\CCTA-OS\lpc17xx.cmsis.driver.library\Debug\liblpc17xx.cmsis.driver.library.a(lpc17xx_i2c.o)
 .debug_line    0x0002409b      0x551 C:\Users\m.paffi.ATESISTEMI\Documents\CCTA-OS\lpc17xx.cmsis.driver.library\Debug\liblpc17xx.cmsis.driver.library.a(lpc17xx_libcfg_default.o)
 .debug_line    0x000245ec      0x4ae C:\Users\m.paffi.ATESISTEMI\Documents\CCTA-OS\lpc17xx.cmsis.driver.library\Debug\liblpc17xx.cmsis.driver.library.a(lpc17xx_pinsel.o)
 .debug_line    0x00024a9a      0x986 C:\Users\m.paffi.ATESISTEMI\Documents\CCTA-OS\lpc17xx.cmsis.driver.library\Debug\liblpc17xx.cmsis.driver.library.a(lpc17xx_ssp.o)
 .debug_line    0x00025420      0xcf5 C:\Users\m.paffi.ATESISTEMI\Documents\CCTA-OS\lpc17xx.cmsis.driver.library\Debug\liblpc17xx.cmsis.driver.library.a(lpc17xx_uart.o)
 .debug_line    0x00026115      0x516 C:\Users\m.paffi.ATESISTEMI\Documents\CCTA-OS\lpc17xx.cmsis.driver.library\Debug\liblpc17xx.cmsis.driver.library.a(lpc17xx_clkpwr.o)
 .debug_line    0x0002662b      0x3e7 C:\Users\m.paffi.ATESISTEMI\Documents\CCTA-OS\CMSISv2p00_LPC17xx\Debug\libCMSISv2p00_LPC17xx.a(system_LPC17xx.o)

.debug_macinfo  0x00000000   0x2eab33
 .debug_macinfo
                0x00000000     0x313f ./Source/cr_startup_lpc176x.o
 .debug_macinfo
                0x0000313f    0x167fe ./Source/main.o
 .debug_macinfo
                0x0001993d     0x17f4 ./Source/printf-stdarg.o
 .debug_macinfo
                0x0001b131     0xadd8 ./Source/lwIP/netif/etharp.o
 .debug_macinfo
                0x00025f09    0x17cb8 ./Source/lwIP/netif/ethernetif.o
 .debug_macinfo
                0x0003dbc1     0x9b59 ./Source/lwIP/netif/sys_arch.o
 .debug_macinfo
                0x0004771a     0xbaf3 ./Source/lwIP/lwIP_Apps/lwIP_Apps.o
 .debug_macinfo
                0x0005320d     0x7f8b ./Source/lwIP/lwIP_Apps/apps/httpserver_raw/fs.o
 .debug_macinfo
                0x0005b198     0xbc22 ./Source/lwIP/lwIP_Apps/apps/httpserver_raw/httpd.o
 .debug_macinfo
                0x00066dba     0x9d7d ./Source/lwIP/lwIP_Apps/apps/BasicSocketCommandServer/BasicSocketCommandServer.o
 .debug_macinfo
                0x00070b37     0x7e4c ./Source/lwIP/core/def.o
 .debug_macinfo
                0x00078983     0x7c02 ./Source/lwIP/core/dhcp.o
 .debug_macinfo
                0x00080585     0x7c02 ./Source/lwIP/core/dns.o
 .debug_macinfo
                0x00088187     0xed7d ./Source/lwIP/core/init.o
 .debug_macinfo
                0x00096f04     0xd254 ./Source/lwIP/core/lwip_timers.o
 .debug_macinfo
                0x000a4158     0x9d4d ./Source/lwIP/core/mem.o
 .debug_macinfo
                0x000adea5     0xeabe ./Source/lwIP/core/memp.o
 .debug_macinfo
                0x000bc963     0xd860 ./Source/lwIP/core/netif.o
 .debug_macinfo
                0x000ca1c3     0x9d54 ./Source/lwIP/core/pbuf.o
 .debug_macinfo
                0x000d3f17     0x7c02 ./Source/lwIP/core/raw.o
 .debug_macinfo
                0x000dbb19     0x7c02 ./Source/lwIP/core/stats.o
 .debug_macinfo
                0x000e371b     0x920b ./Source/lwIP/core/sys.o
 .debug_macinfo
                0x000ec926     0xd619 ./Source/lwIP/core/tcp.o
 .debug_macinfo
                0x000f9f3f     0xd64a ./Source/lwIP/core/tcp_in.o
 .debug_macinfo
                0x00107589     0xd6f4 ./Source/lwIP/core/tcp_out.o
 .debug_macinfo
                0x00114c7d     0x7c02 ./Source/lwIP/core/udp.o
 .debug_macinfo
                0x0011c87f     0x7c02 ./Source/lwIP/core/ipv4/autoip.o
 .debug_macinfo
                0x00124481     0xac6e ./Source/lwIP/core/ipv4/icmp.o
 .debug_macinfo
                0x0012f0ef     0x7c02 ./Source/lwIP/core/ipv4/igmp.o
 .debug_macinfo
                0x00136cf1     0x909c ./Source/lwIP/core/ipv4/inet.o
 .debug_macinfo
                0x0013fd8d     0x8e49 ./Source/lwIP/core/ipv4/inet_chksum.o
 .debug_macinfo
                0x00148bd6     0xd763 ./Source/lwIP/core/ipv4/ip.o
 .debug_macinfo
                0x00156339     0x9072 ./Source/lwIP/core/ipv4/ip_addr.o
 .debug_macinfo
                0x0015f3ab     0xac41 ./Source/lwIP/core/ipv4/ip_frag.o
 .debug_macinfo
                0x00169fec     0xbe8f ./Source/lwIP/api/api_lib.o
 .debug_macinfo
                0x00175e7b     0xbfb7 ./Source/lwIP/api/api_msg.o
 .debug_macinfo
                0x00181e32     0x7d3c ./Source/lwIP/api/err.o
 .debug_macinfo
                0x00189b6e     0x914a ./Source/lwIP/api/netbuf.o
 .debug_macinfo
                0x00192cb8     0x7c1a ./Source/lwIP/api/netdb.o
 .debug_macinfo
                0x0019a8d2     0x7c02 ./Source/lwIP/api/netifapi.o
 .debug_macinfo
                0x001a24d4     0xcffe ./Source/lwIP/api/sockets.o
 .debug_macinfo
                0x001af4d2     0xbd7a ./Source/lwIP/api/tcpip.o
 .debug_macinfo
                0x001bb24c     0x57c0 ./Source/MemMang/heap_2.o
 .debug_macinfo
                0x001c0a0c     0x5e6f ./Source/FreeRTOS-Products/FreeRTOS-Plus-IO/Device/LPC17xx/FreeRTOS_lpc17xx_DriverInterface.o
 .debug_macinfo
                0x001c687b    0x1199e ./Source/FreeRTOS-Products/FreeRTOS-Plus-IO/Device/LPC17xx/FreeRTOS_lpc17xx_i2c.o
 .debug_macinfo
                0x001d8219    0x11a20 ./Source/FreeRTOS-Products/FreeRTOS-Plus-IO/Device/LPC17xx/FreeRTOS_lpc17xx_ssp.o
 .debug_macinfo
                0x001e9c39    0x119e8 ./Source/FreeRTOS-Products/FreeRTOS-Plus-IO/Device/LPC17xx/FreeRTOS_lpc17xx_uart.o
 .debug_macinfo
                0x001fb621    0x11477 ./Source/FreeRTOS-Products/FreeRTOS-Plus-IO/Common/FreeRTOS_DriverInterface.o
 .debug_macinfo
                0x0020ca98     0x881b ./Source/FreeRTOS-Products/FreeRTOS-Plus-IO/Common/FreeRTOS_IOUtils.o
 .debug_macinfo
                0x002152b3     0x8817 ./Source/FreeRTOS-Products/FreeRTOS-Plus-IO/Common/IOUtils_CharQueueTxAndRx.o
 .debug_macinfo
                0x0021daca     0x8817 ./Source/FreeRTOS-Products/FreeRTOS-Plus-IO/Common/IOUtils_CircularBufferRx.o
 .debug_macinfo
                0x002262e1     0x881b ./Source/FreeRTOS-Products/FreeRTOS-Plus-IO/Common/IOUtils_ZeroCopyTx.o
 .debug_macinfo
                0x0022eafc     0x541a ./Source/FreeRTOS-Products/FreeRTOS-Plus-CLI/FreeRTOS_CLI.o
 .debug_macinfo
                0x00233f16     0x5af2 ./Source/FreeRTOS-Products/FreeRTOS/croutine.o
 .debug_macinfo
                0x00239a08     0x510d ./Source/FreeRTOS-Products/FreeRTOS/list.o
 .debug_macinfo
                0x0023eb15     0x5868 ./Source/FreeRTOS-Products/FreeRTOS/queue.o
 .debug_macinfo
                0x0024437d     0x6563 ./Source/FreeRTOS-Products/FreeRTOS/tasks.o
 .debug_macinfo
                0x0024a8e0     0x6275 ./Source/FreeRTOS-Products/FreeRTOS/timers.o
 .debug_macinfo
                0x00250b55     0x5625 ./Source/FreeRTOS-Products/FreeRTOS/portable/GCC/ARM_CM3/port.o
 .debug_macinfo
                0x0025617a     0x6a8f ./Source/FatFS/ff.o
 .debug_macinfo
                0x0025cc09    0x102d3 ./Source/FatFS/mmc.o
 .debug_macinfo
                0x0026cedc     0x6221 ./Source/FatFS/syscall.o
 .debug_macinfo
                0x002730fd    0x1081a ./Source/Examples/SSP/SPI-interface-to-SD-card.o
 .debug_macinfo
                0x00283917     0xf2cb ./Source/Examples/GPIO/GPIO-output-and-software-timers.o
 .debug_macinfo
                0x00292be2     0xcc2d C:\Users\m.paffi.ATESISTEMI\Documents\CCTA-OS\lpc17xx.cmsis.driver.library\Debug\liblpc17xx.cmsis.driver.library.a(lpc17xx_emac.o)
 .debug_macinfo
                0x0029f80f     0x9ca1 C:\Users\m.paffi.ATESISTEMI\Documents\CCTA-OS\lpc17xx.cmsis.driver.library\Debug\liblpc17xx.cmsis.driver.library.a(lpc17xx_gpio.o)
 .debug_macinfo
                0x002a94b0     0xbbb9 C:\Users\m.paffi.ATESISTEMI\Documents\CCTA-OS\lpc17xx.cmsis.driver.library\Debug\liblpc17xx.cmsis.driver.library.a(lpc17xx_i2c.o)
 .debug_macinfo
                0x002b5069     0x54c3 C:\Users\m.paffi.ATESISTEMI\Documents\CCTA-OS\lpc17xx.cmsis.driver.library\Debug\liblpc17xx.cmsis.driver.library.a(lpc17xx_libcfg_default.o)
 .debug_macinfo
                0x002ba52c     0x7ced C:\Users\m.paffi.ATESISTEMI\Documents\CCTA-OS\lpc17xx.cmsis.driver.library\Debug\liblpc17xx.cmsis.driver.library.a(lpc17xx_pinsel.o)
 .debug_macinfo
                0x002c2219     0xbeaa C:\Users\m.paffi.ATESISTEMI\Documents\CCTA-OS\lpc17xx.cmsis.driver.library\Debug\liblpc17xx.cmsis.driver.library.a(lpc17xx_ssp.o)
 .debug_macinfo
                0x002ce0c3     0xc635 C:\Users\m.paffi.ATESISTEMI\Documents\CCTA-OS\lpc17xx.cmsis.driver.library\Debug\liblpc17xx.cmsis.driver.library.a(lpc17xx_uart.o)
 .debug_macinfo
                0x002da6f8     0x8b10 C:\Users\m.paffi.ATESISTEMI\Documents\CCTA-OS\lpc17xx.cmsis.driver.library\Debug\liblpc17xx.cmsis.driver.library.a(lpc17xx_clkpwr.o)
 .debug_macinfo
                0x002e3208     0x792b C:\Users\m.paffi.ATESISTEMI\Documents\CCTA-OS\CMSISv2p00_LPC17xx\Debug\libCMSISv2p00_LPC17xx.a(system_LPC17xx.o)

.debug_loc      0x00000000    0x154a2
 .debug_loc     0x00000000      0x2c4 ./Source/cr_startup_lpc176x.o
 .debug_loc     0x000002c4      0x225 ./Source/main.o
 .debug_loc     0x000004e9      0x6e2 ./Source/printf-stdarg.o
 .debug_loc     0x00000bcb      0xac0 ./Source/lwIP/netif/etharp.o
 .debug_loc     0x0000168b      0x36c ./Source/lwIP/netif/ethernetif.o
 .debug_loc     0x000019f7      0x66a ./Source/lwIP/netif/sys_arch.o
 .debug_loc     0x00002061       0xb9 ./Source/lwIP/lwIP_Apps/lwIP_Apps.o
 .debug_loc     0x0000211a      0x145 ./Source/lwIP/lwIP_Apps/apps/httpserver_raw/fs.o
 .debug_loc     0x0000225f      0xcb1 ./Source/lwIP/lwIP_Apps/apps/httpserver_raw/httpd.o
 .debug_loc     0x00002f10      0x136 ./Source/lwIP/lwIP_Apps/apps/BasicSocketCommandServer/BasicSocketCommandServer.o
 .debug_loc     0x00003046       0x26 ./Source/lwIP/core/def.o
 .debug_loc     0x0000306c       0x20 ./Source/lwIP/core/init.o
 .debug_loc     0x0000308c      0x2b2 ./Source/lwIP/core/lwip_timers.o
 .debug_loc     0x0000333e      0x2ed ./Source/lwIP/core/mem.o
 .debug_loc     0x0000362b      0x17f ./Source/lwIP/core/memp.o
 .debug_loc     0x000037aa      0x30a ./Source/lwIP/core/netif.o
 .debug_loc     0x00003ab4      0xe1a ./Source/lwIP/core/pbuf.o
 .debug_loc     0x000048ce       0x51 ./Source/lwIP/core/sys.o
 .debug_loc     0x0000491f      0xe07 ./Source/lwIP/core/tcp.o
 .debug_loc     0x00005726      0x623 ./Source/lwIP/core/tcp_in.o
 .debug_loc     0x00005d49     0x1096 ./Source/lwIP/core/tcp_out.o
 .debug_loc     0x00006ddf      0x228 ./Source/lwIP/core/ipv4/icmp.o
 .debug_loc     0x00007007      0x658 ./Source/lwIP/core/ipv4/inet_chksum.o
 .debug_loc     0x0000765f      0x3c4 ./Source/lwIP/core/ipv4/ip.o
 .debug_loc     0x00007a23      0x49a ./Source/lwIP/core/ipv4/ip_addr.o
 .debug_loc     0x00007ebd      0xa70 ./Source/lwIP/api/api_lib.o
 .debug_loc     0x0000892d      0xaea ./Source/lwIP/api/api_msg.o
 .debug_loc     0x00009417      0x2c4 ./Source/lwIP/api/netbuf.o
 .debug_loc     0x000096db     0x1a86 ./Source/lwIP/api/sockets.o
 .debug_loc     0x0000b161      0x370 ./Source/lwIP/api/tcpip.o
 .debug_loc     0x0000b4d1      0x22b ./Source/MemMang/heap_2.o
 .debug_loc     0x0000b6fc       0x47 ./Source/FreeRTOS-Products/FreeRTOS-Plus-IO/Device/LPC17xx/FreeRTOS_lpc17xx_DriverInterface.o
 .debug_loc     0x0000b743      0x618 ./Source/FreeRTOS-Products/FreeRTOS-Plus-IO/Device/LPC17xx/FreeRTOS_lpc17xx_i2c.o
 .debug_loc     0x0000bd5b      0xabe ./Source/FreeRTOS-Products/FreeRTOS-Plus-IO/Device/LPC17xx/FreeRTOS_lpc17xx_ssp.o
 .debug_loc     0x0000c819      0x4a4 ./Source/FreeRTOS-Products/FreeRTOS-Plus-IO/Device/LPC17xx/FreeRTOS_lpc17xx_uart.o
 .debug_loc     0x0000ccbd      0x446 ./Source/FreeRTOS-Products/FreeRTOS-Plus-IO/Common/FreeRTOS_DriverInterface.o
 .debug_loc     0x0000d103       0xc8 ./Source/FreeRTOS-Products/FreeRTOS-Plus-IO/Common/FreeRTOS_IOUtils.o
 .debug_loc     0x0000d1cb      0x3a4 ./Source/FreeRTOS-Products/FreeRTOS-Plus-IO/Common/IOUtils_CharQueueTxAndRx.o
 .debug_loc     0x0000d56f      0x225 ./Source/FreeRTOS-Products/FreeRTOS-Plus-IO/Common/IOUtils_CircularBufferRx.o
 .debug_loc     0x0000d794      0x1ea ./Source/FreeRTOS-Products/FreeRTOS-Plus-IO/Common/IOUtils_ZeroCopyTx.o
 .debug_loc     0x0000d97e      0x329 ./Source/FreeRTOS-Products/FreeRTOS-Plus-CLI/FreeRTOS_CLI.o
 .debug_loc     0x0000dca7      0x1f7 ./Source/FreeRTOS-Products/FreeRTOS/croutine.o
 .debug_loc     0x0000de9e       0x73 ./Source/FreeRTOS-Products/FreeRTOS/list.o
 .debug_loc     0x0000df11      0x9ec ./Source/FreeRTOS-Products/FreeRTOS/queue.o
 .debug_loc     0x0000e8fd      0xe23 ./Source/FreeRTOS-Products/FreeRTOS/tasks.o
 .debug_loc     0x0000f720      0x594 ./Source/FreeRTOS-Products/FreeRTOS/timers.o
 .debug_loc     0x0000fcb4       0x9d ./Source/FreeRTOS-Products/FreeRTOS/portable/GCC/ARM_CM3/port.o
 .debug_loc     0x0000fd51     0x29d5 ./Source/FatFS/ff.o
 .debug_loc     0x00012726      0x8c0 ./Source/FatFS/mmc.o
 .debug_loc     0x00012fe6       0xe4 ./Source/FatFS/syscall.o
 .debug_loc     0x000130ca      0x4d6 ./Source/Examples/SSP/SPI-interface-to-SD-card.o
 .debug_loc     0x000135a0       0xa0 ./Source/Examples/GPIO/GPIO-output-and-software-timers.o
 .debug_loc     0x00013640      0x5b8 C:\Users\m.paffi.ATESISTEMI\Documents\CCTA-OS\lpc17xx.cmsis.driver.library\Debug\liblpc17xx.cmsis.driver.library.a(lpc17xx_emac.o)
 .debug_loc     0x00013bf8      0x620 C:\Users\m.paffi.ATESISTEMI\Documents\CCTA-OS\lpc17xx.cmsis.driver.library\Debug\liblpc17xx.cmsis.driver.library.a(lpc17xx_gpio.o)
 .debug_loc     0x00014218      0x508 C:\Users\m.paffi.ATESISTEMI\Documents\CCTA-OS\lpc17xx.cmsis.driver.library\Debug\liblpc17xx.cmsis.driver.library.a(lpc17xx_i2c.o)
 .debug_loc     0x00014720       0x38 C:\Users\m.paffi.ATESISTEMI\Documents\CCTA-OS\lpc17xx.cmsis.driver.library\Debug\liblpc17xx.cmsis.driver.library.a(lpc17xx_libcfg_default.o)
 .debug_loc     0x00014758      0x150 C:\Users\m.paffi.ATESISTEMI\Documents\CCTA-OS\lpc17xx.cmsis.driver.library\Debug\liblpc17xx.cmsis.driver.library.a(lpc17xx_pinsel.o)
 .debug_loc     0x000148a8      0x3f0 C:\Users\m.paffi.ATESISTEMI\Documents\CCTA-OS\lpc17xx.cmsis.driver.library\Debug\liblpc17xx.cmsis.driver.library.a(lpc17xx_ssp.o)
 .debug_loc     0x00014c98      0x65a C:\Users\m.paffi.ATESISTEMI\Documents\CCTA-OS\lpc17xx.cmsis.driver.library\Debug\liblpc17xx.cmsis.driver.library.a(lpc17xx_uart.o)
 .debug_loc     0x000152f2      0x190 C:\Users\m.paffi.ATESISTEMI\Documents\CCTA-OS\lpc17xx.cmsis.driver.library\Debug\liblpc17xx.cmsis.driver.library.a(lpc17xx_clkpwr.o)
 .debug_loc     0x00015482       0x20 C:\Users\m.paffi.ATESISTEMI\Documents\CCTA-OS\CMSISv2p00_LPC17xx\Debug\libCMSISv2p00_LPC17xx.a(system_LPC17xx.o)

.debug_pubnames
                0x00000000     0x3019
 .debug_pubnames
                0x00000000      0x13b ./Source/cr_startup_lpc176x.o
 .debug_pubnames
                0x0000013b      0x10a ./Source/main.o
 .debug_pubnames
                0x00000245       0x40 ./Source/printf-stdarg.o
 .debug_pubnames
                0x00000285       0x9c ./Source/lwIP/netif/etharp.o
 .debug_pubnames
                0x00000321       0x3a ./Source/lwIP/netif/ethernetif.o
 .debug_pubnames
                0x0000035b      0x19c ./Source/lwIP/netif/sys_arch.o
 .debug_pubnames
                0x000004f7       0x23 ./Source/lwIP/lwIP_Apps/lwIP_Apps.o
 .debug_pubnames
                0x0000051a       0xab ./Source/lwIP/lwIP_Apps/apps/httpserver_raw/fs.o
 .debug_pubnames
                0x000005c5       0xbf ./Source/lwIP/lwIP_Apps/apps/httpserver_raw/httpd.o
 .debug_pubnames
                0x00000684       0x3a ./Source/lwIP/lwIP_Apps/apps/BasicSocketCommandServer/BasicSocketCommandServer.o
 .debug_pubnames
                0x000006be       0x4e ./Source/lwIP/core/def.o
 .debug_pubnames
                0x0000070c       0x20 ./Source/lwIP/core/init.o
 .debug_pubnames
                0x0000072c       0x7b ./Source/lwIP/core/lwip_timers.o
 .debug_pubnames
                0x000007a7       0x64 ./Source/lwIP/core/mem.o
 .debug_pubnames
                0x0000080b       0x3e ./Source/lwIP/core/memp.o
 .debug_pubnames
                0x00000849      0x127 ./Source/lwIP/core/netif.o
 .debug_pubnames
                0x00000970      0x11d ./Source/lwIP/core/pbuf.o
 .debug_pubnames
                0x00000a8d       0x21 ./Source/lwIP/core/sys.o
 .debug_pubnames
                0x00000aae      0x2a3 ./Source/lwIP/core/tcp.o
 .debug_pubnames
                0x00000d51       0x32 ./Source/lwIP/core/tcp_in.o
 .debug_pubnames
                0x00000d83       0xdb ./Source/lwIP/core/tcp_out.o
 .debug_pubnames
                0x00000e5e       0x37 ./Source/lwIP/core/ipv4/icmp.o
 .debug_pubnames
                0x00000e95       0x6d ./Source/lwIP/core/ipv4/inet_chksum.o
 .debug_pubnames
                0x00000f02       0x9d ./Source/lwIP/core/ipv4/ip.o
 .debug_pubnames
                0x00000f9f       0xae ./Source/lwIP/core/ipv4/ip_addr.o
 .debug_pubnames
                0x0000104d      0x16b ./Source/lwIP/api/api_lib.o
 .debug_pubnames
                0x000011b8       0xcf ./Source/lwIP/api/api_msg.o
 .debug_pubnames
                0x00001287       0xa5 ./Source/lwIP/api/netbuf.o
 .debug_pubnames
                0x0000132c      0x172 ./Source/lwIP/api/sockets.o
 .debug_pubnames
                0x0000149e       0xb3 ./Source/lwIP/api/tcpip.o
 .debug_pubnames
                0x00001551       0x64 ./Source/MemMang/heap_2.o
 .debug_pubnames
                0x000015b5       0x41 ./Source/FreeRTOS-Products/FreeRTOS-Plus-IO/Device/LPC17xx/FreeRTOS_lpc17xx_DriverInterface.o
 .debug_pubnames
                0x000015f6       0x87 ./Source/FreeRTOS-Products/FreeRTOS-Plus-IO/Device/LPC17xx/FreeRTOS_lpc17xx_i2c.o
 .debug_pubnames
                0x0000167d       0x80 ./Source/FreeRTOS-Products/FreeRTOS-Plus-IO/Device/LPC17xx/FreeRTOS_lpc17xx_ssp.o
 .debug_pubnames
                0x000016fd       0x8c ./Source/FreeRTOS-Products/FreeRTOS-Plus-IO/Device/LPC17xx/FreeRTOS_lpc17xx_uart.o
 .debug_pubnames
                0x00001789       0x37 ./Source/FreeRTOS-Products/FreeRTOS-Plus-IO/Common/FreeRTOS_DriverInterface.o
 .debug_pubnames
                0x000017c0       0x3d ./Source/FreeRTOS-Products/FreeRTOS-Plus-IO/Common/FreeRTOS_IOUtils.o
 .debug_pubnames
                0x000017fd       0xee ./Source/FreeRTOS-Products/FreeRTOS-Plus-IO/Common/IOUtils_CharQueueTxAndRx.o
 .debug_pubnames
                0x000018eb       0xa7 ./Source/FreeRTOS-Products/FreeRTOS-Plus-IO/Common/IOUtils_CircularBufferRx.o
 .debug_pubnames
                0x00001992       0x7a ./Source/FreeRTOS-Products/FreeRTOS-Plus-IO/Common/IOUtils_ZeroCopyTx.o
 .debug_pubnames
                0x00001a0c       0x8e ./Source/FreeRTOS-Products/FreeRTOS-Plus-CLI/FreeRTOS_CLI.o
 .debug_pubnames
                0x00001a9a       0x96 ./Source/FreeRTOS-Products/FreeRTOS/croutine.o
 .debug_pubnames
                0x00001b30       0x71 ./Source/FreeRTOS-Products/FreeRTOS/list.o
 .debug_pubnames
                0x00001ba1      0x231 ./Source/FreeRTOS-Products/FreeRTOS/queue.o
 .debug_pubnames
                0x00001dd2      0x340 ./Source/FreeRTOS-Products/FreeRTOS/tasks.o
 .debug_pubnames
                0x00002112       0x84 ./Source/FreeRTOS-Products/FreeRTOS/timers.o
 .debug_pubnames
                0x00002196      0x104 ./Source/FreeRTOS-Products/FreeRTOS/portable/GCC/ARM_CM3/port.o
 .debug_pubnames
                0x0000229a      0x10c ./Source/FatFS/ff.o
 .debug_pubnames
                0x000023a6       0x8b ./Source/FatFS/mmc.o
 .debug_pubnames
                0x00002431       0x5a ./Source/FatFS/syscall.o
 .debug_pubnames
                0x0000248b       0x35 ./Source/Examples/SSP/SPI-interface-to-SD-card.o
 .debug_pubnames
                0x000024c0       0x4c ./Source/Examples/GPIO/GPIO-output-and-software-timers.o
 .debug_pubnames
                0x0000250c      0x228 C:\Users\m.paffi.ATESISTEMI\Documents\CCTA-OS\lpc17xx.cmsis.driver.library\Debug\liblpc17xx.cmsis.driver.library.a(lpc17xx_emac.o)
 .debug_pubnames
                0x00002734      0x203 C:\Users\m.paffi.ATESISTEMI\Documents\CCTA-OS\lpc17xx.cmsis.driver.library\Debug\liblpc17xx.cmsis.driver.library.a(lpc17xx_gpio.o)
 .debug_pubnames
                0x00002937      0x18f C:\Users\m.paffi.ATESISTEMI\Documents\CCTA-OS\lpc17xx.cmsis.driver.library\Debug\liblpc17xx.cmsis.driver.library.a(lpc17xx_i2c.o)
 .debug_pubnames
                0x00002ac6       0x23 C:\Users\m.paffi.ATESISTEMI\Documents\CCTA-OS\lpc17xx.cmsis.driver.library\Debug\liblpc17xx.cmsis.driver.library.a(lpc17xx_libcfg_default.o)
 .debug_pubnames
                0x00002ae9       0x59 C:\Users\m.paffi.ATESISTEMI\Documents\CCTA-OS\lpc17xx.cmsis.driver.library\Debug\liblpc17xx.cmsis.driver.library.a(lpc17xx_pinsel.o)
 .debug_pubnames
                0x00002b42      0x15c C:\Users\m.paffi.ATESISTEMI\Documents\CCTA-OS\lpc17xx.cmsis.driver.library\Debug\liblpc17xx.cmsis.driver.library.a(lpc17xx_ssp.o)
 .debug_pubnames
                0x00002c9e      0x271 C:\Users\m.paffi.ATESISTEMI\Documents\CCTA-OS\lpc17xx.cmsis.driver.library\Debug\liblpc17xx.cmsis.driver.library.a(lpc17xx_uart.o)
 .debug_pubnames
                0x00002f0f       0xbb C:\Users\m.paffi.ATESISTEMI\Documents\CCTA-OS\lpc17xx.cmsis.driver.library\Debug\liblpc17xx.cmsis.driver.library.a(lpc17xx_clkpwr.o)
 .debug_pubnames
                0x00002fca       0x4f C:\Users\m.paffi.ATESISTEMI\Documents\CCTA-OS\CMSISv2p00_LPC17xx\Debug\libCMSISv2p00_LPC17xx.a(system_LPC17xx.o)

.debug_pubtypes
                0x00000000     0x40a6
 .debug_pubtypes
                0x00000000       0x12 ./Source/cr_startup_lpc176x.o
 .debug_pubtypes
                0x00000012       0xc5 ./Source/main.o
 .debug_pubtypes
                0x000000d7       0x2c ./Source/printf-stdarg.o
 .debug_pubtypes
                0x00000103      0x122 ./Source/lwIP/netif/etharp.o
 .debug_pubtypes
                0x00000225      0x17a ./Source/lwIP/netif/ethernetif.o
 .debug_pubtypes
                0x0000039f       0xcc ./Source/lwIP/netif/sys_arch.o
 .debug_pubtypes
                0x0000046b       0xc6 ./Source/lwIP/lwIP_Apps/lwIP_Apps.o
 .debug_pubtypes
                0x00000531       0x44 ./Source/lwIP/lwIP_Apps/apps/httpserver_raw/fs.o
 .debug_pubtypes
                0x00000575      0x170 ./Source/lwIP/lwIP_Apps/apps/httpserver_raw/httpd.o
 .debug_pubtypes
                0x000006e5       0x7c ./Source/lwIP/lwIP_Apps/apps/BasicSocketCommandServer/BasicSocketCommandServer.o
 .debug_pubtypes
                0x00000761       0x26 ./Source/lwIP/core/def.o
 .debug_pubtypes
                0x00000787       0x12 ./Source/lwIP/core/dhcp.o
 .debug_pubtypes
                0x00000799       0x12 ./Source/lwIP/core/dns.o
 .debug_pubtypes
                0x000007ab       0x12 ./Source/lwIP/core/init.o
 .debug_pubtypes
                0x000007bd      0x14d ./Source/lwIP/core/lwip_timers.o
 .debug_pubtypes
                0x0000090a       0xa4 ./Source/lwIP/core/mem.o
 .debug_pubtypes
                0x000009ae       0x6b ./Source/lwIP/core/memp.o
 .debug_pubtypes
                0x00000a19      0x18b ./Source/lwIP/core/netif.o
 .debug_pubtypes
                0x00000ba4       0xa4 ./Source/lwIP/core/pbuf.o
 .debug_pubtypes
                0x00000c48       0x12 ./Source/lwIP/core/raw.o
 .debug_pubtypes
                0x00000c5a       0x12 ./Source/lwIP/core/stats.o
 .debug_pubtypes
                0x00000c6c       0x63 ./Source/lwIP/core/sys.o
 .debug_pubtypes
                0x00000ccf      0x183 ./Source/lwIP/core/tcp.o
 .debug_pubtypes
                0x00000e52      0x1b1 ./Source/lwIP/core/tcp_in.o
 .debug_pubtypes
                0x00001003      0x182 ./Source/lwIP/core/tcp_out.o
 .debug_pubtypes
                0x00001185       0x12 ./Source/lwIP/core/udp.o
 .debug_pubtypes
                0x00001197       0x12 ./Source/lwIP/core/ipv4/autoip.o
 .debug_pubtypes
                0x000011a9      0x10a ./Source/lwIP/core/ipv4/icmp.o
 .debug_pubtypes
                0x000012b3       0x12 ./Source/lwIP/core/ipv4/igmp.o
 .debug_pubtypes
                0x000012c5       0x12 ./Source/lwIP/core/ipv4/inet.o
 .debug_pubtypes
                0x000012d7       0x6b ./Source/lwIP/core/ipv4/inet_chksum.o
 .debug_pubtypes
                0x00001342       0xee ./Source/lwIP/core/ipv4/ip.o
 .debug_pubtypes
                0x00001430       0xae ./Source/lwIP/core/ipv4/ip_addr.o
 .debug_pubtypes
                0x000014de       0x12 ./Source/lwIP/core/ipv4/ip_frag.o
 .debug_pubtypes
                0x000014f0      0x1d2 ./Source/lwIP/api/api_lib.o
 .debug_pubtypes
                0x000016c2      0x1c6 ./Source/lwIP/api/api_msg.o
 .debug_pubtypes
                0x00001888       0x12 ./Source/lwIP/api/err.o
 .debug_pubtypes
                0x0000189a       0x70 ./Source/lwIP/api/netbuf.o
 .debug_pubtypes
                0x0000190a       0x12 ./Source/lwIP/api/netdb.o
 .debug_pubtypes
                0x0000191c       0x12 ./Source/lwIP/api/netifapi.o
 .debug_pubtypes
                0x0000192e      0x25c ./Source/lwIP/api/sockets.o
 .debug_pubtypes
                0x00001b8a      0x1f2 ./Source/lwIP/api/tcpip.o
 .debug_pubtypes
                0x00001d7c       0x49 ./Source/MemMang/heap_2.o
 .debug_pubtypes
                0x00001dc5      0x164 ./Source/FreeRTOS-Products/FreeRTOS-Plus-IO/Device/LPC17xx/FreeRTOS_lpc17xx_DriverInterface.o
 .debug_pubtypes
                0x00001f29      0x2a4 ./Source/FreeRTOS-Products/FreeRTOS-Plus-IO/Device/LPC17xx/FreeRTOS_lpc17xx_i2c.o
 .debug_pubtypes
                0x000021cd      0x2fe ./Source/FreeRTOS-Products/FreeRTOS-Plus-IO/Device/LPC17xx/FreeRTOS_lpc17xx_ssp.o
 .debug_pubtypes
                0x000024cb      0x262 ./Source/FreeRTOS-Products/FreeRTOS-Plus-IO/Device/LPC17xx/FreeRTOS_lpc17xx_uart.o
 .debug_pubtypes
                0x0000272d      0x1be ./Source/FreeRTOS-Products/FreeRTOS-Plus-IO/Common/FreeRTOS_DriverInterface.o
 .debug_pubtypes
                0x000028eb      0x137 ./Source/FreeRTOS-Products/FreeRTOS-Plus-IO/Common/FreeRTOS_IOUtils.o
 .debug_pubtypes
                0x00002a22      0x1ec ./Source/FreeRTOS-Products/FreeRTOS-Plus-IO/Common/IOUtils_CharQueueTxAndRx.o
 .debug_pubtypes
                0x00002c0e      0x1e5 ./Source/FreeRTOS-Products/FreeRTOS-Plus-IO/Common/IOUtils_CircularBufferRx.o
 .debug_pubtypes
                0x00002df3      0x1d9 ./Source/FreeRTOS-Products/FreeRTOS-Plus-IO/Common/IOUtils_ZeroCopyTx.o
 .debug_pubtypes
                0x00002fcc       0xa8 ./Source/FreeRTOS-Products/FreeRTOS-Plus-CLI/FreeRTOS_CLI.o
 .debug_pubtypes
                0x00003074       0xcd ./Source/FreeRTOS-Products/FreeRTOS/croutine.o
 .debug_pubtypes
                0x00003141       0x7a ./Source/FreeRTOS-Products/FreeRTOS/list.o
 .debug_pubtypes
                0x000031bb      0x103 ./Source/FreeRTOS-Products/FreeRTOS/queue.o
 .debug_pubtypes
                0x000032be      0x10c ./Source/FreeRTOS-Products/FreeRTOS/tasks.o
 .debug_pubtypes
                0x000033ca       0xfd ./Source/FreeRTOS-Products/FreeRTOS/timers.o
 .debug_pubtypes
                0x000034c7       0x40 ./Source/FreeRTOS-Products/FreeRTOS/portable/GCC/ARM_CM3/port.o
 .debug_pubtypes
                0x00003507       0xa5 ./Source/FatFS/ff.o
 .debug_pubtypes
                0x000035ac      0x1c7 ./Source/FatFS/mmc.o
 .debug_pubtypes
                0x00003773       0x5b ./Source/FatFS/syscall.o
 .debug_pubtypes
                0x000037ce      0x13f ./Source/Examples/SSP/SPI-interface-to-SD-card.o
 .debug_pubtypes
                0x0000390d       0x64 ./Source/Examples/GPIO/GPIO-output-and-software-timers.o
 .debug_pubtypes
                0x00003971      0x120 C:\Users\m.paffi.ATESISTEMI\Documents\CCTA-OS\lpc17xx.cmsis.driver.library\Debug\liblpc17xx.cmsis.driver.library.a(lpc17xx_emac.o)
 .debug_pubtypes
                0x00003a91       0xb5 C:\Users\m.paffi.ATESISTEMI\Documents\CCTA-OS\lpc17xx.cmsis.driver.library\Debug\liblpc17xx.cmsis.driver.library.a(lpc17xx_gpio.o)
 .debug_pubtypes
                0x00003b46      0x113 C:\Users\m.paffi.ATESISTEMI\Documents\CCTA-OS\lpc17xx.cmsis.driver.library\Debug\liblpc17xx.cmsis.driver.library.a(lpc17xx_i2c.o)
 .debug_pubtypes
                0x00003c59       0x2b C:\Users\m.paffi.ATESISTEMI\Documents\CCTA-OS\lpc17xx.cmsis.driver.library\Debug\liblpc17xx.cmsis.driver.library.a(lpc17xx_libcfg_default.o)
 .debug_pubtypes
                0x00003c84       0x76 C:\Users\m.paffi.ATESISTEMI\Documents\CCTA-OS\lpc17xx.cmsis.driver.library\Debug\liblpc17xx.cmsis.driver.library.a(lpc17xx_pinsel.o)
 .debug_pubtypes
                0x00003cfa       0xc8 C:\Users\m.paffi.ATESISTEMI\Documents\CCTA-OS\lpc17xx.cmsis.driver.library\Debug\liblpc17xx.cmsis.driver.library.a(lpc17xx_ssp.o)
 .debug_pubtypes
                0x00003dc2      0x23b C:\Users\m.paffi.ATESISTEMI\Documents\CCTA-OS\lpc17xx.cmsis.driver.library\Debug\liblpc17xx.cmsis.driver.library.a(lpc17xx_uart.o)
 .debug_pubtypes
                0x00003ffd       0x6b C:\Users\m.paffi.ATESISTEMI\Documents\CCTA-OS\lpc17xx.cmsis.driver.library\Debug\liblpc17xx.cmsis.driver.library.a(lpc17xx_clkpwr.o)
 .debug_pubtypes
                0x00004068       0x3e C:\Users\m.paffi.ATESISTEMI\Documents\CCTA-OS\CMSISv2p00_LPC17xx\Debug\libCMSISv2p00_LPC17xx.a(system_LPC17xx.o)

.debug_aranges  0x00000000     0x1988
 .debug_aranges
                0x00000000       0x88 ./Source/cr_startup_lpc176x.o
 .debug_aranges
                0x00000088       0x60 ./Source/main.o
 .debug_aranges
                0x000000e8       0x58 ./Source/printf-stdarg.o
 .debug_aranges
                0x00000140       0x60 ./Source/lwIP/netif/etharp.o
 .debug_aranges
                0x000001a0       0x30 ./Source/lwIP/netif/ethernetif.o
 .debug_aranges
                0x000001d0       0xb8 ./Source/lwIP/netif/sys_arch.o
 .debug_aranges
                0x00000288       0x28 ./Source/lwIP/lwIP_Apps/lwIP_Apps.o
 .debug_aranges
                0x000002b0       0x40 ./Source/lwIP/lwIP_Apps/apps/httpserver_raw/fs.o
 .debug_aranges
                0x000002f0       0x80 ./Source/lwIP/lwIP_Apps/apps/httpserver_raw/httpd.o
 .debug_aranges
                0x00000370       0x20 ./Source/lwIP/lwIP_Apps/apps/BasicSocketCommandServer/BasicSocketCommandServer.o
 .debug_aranges
                0x00000390       0x38 ./Source/lwIP/core/def.o
 .debug_aranges
                0x000003c8       0x20 ./Source/lwIP/core/init.o
 .debug_aranges
                0x000003e8       0x50 ./Source/lwIP/core/lwip_timers.o
 .debug_aranges
                0x00000438       0x40 ./Source/lwIP/core/mem.o
 .debug_aranges
                0x00000478       0x30 ./Source/lwIP/core/memp.o
 .debug_aranges
                0x000004a8       0x80 ./Source/lwIP/core/netif.o
 .debug_aranges
                0x00000528       0xa0 ./Source/lwIP/core/pbuf.o
 .debug_aranges
                0x000005c8       0x20 ./Source/lwIP/core/sys.o
 .debug_aranges
                0x000005e8      0x118 ./Source/lwIP/core/tcp.o
 .debug_aranges
                0x00000700       0x30 ./Source/lwIP/core/tcp_in.o
 .debug_aranges
                0x00000730       0x88 ./Source/lwIP/core/tcp_out.o
 .debug_aranges
                0x000007b8       0x28 ./Source/lwIP/core/ipv4/icmp.o
 .debug_aranges
                0x000007e0       0x40 ./Source/lwIP/core/ipv4/inet_chksum.o
 .debug_aranges
                0x00000820       0x38 ./Source/lwIP/core/ipv4/ip.o
 .debug_aranges
                0x00000858       0x48 ./Source/lwIP/core/ipv4/ip_addr.o
 .debug_aranges
                0x000008a0       0xa8 ./Source/lwIP/api/api_lib.o
 .debug_aranges
                0x00000948       0xd0 ./Source/lwIP/api/api_msg.o
 .debug_aranges
                0x00000a18       0x60 ./Source/lwIP/api/netbuf.o
 .debug_aranges
                0x00000a78      0x100 ./Source/lwIP/api/sockets.o
 .debug_aranges
                0x00000b78       0x68 ./Source/lwIP/api/tcpip.o
 .debug_aranges
                0x00000be0       0x38 ./Source/MemMang/heap_2.o
 .debug_aranges
                0x00000c18       0x20 ./Source/FreeRTOS-Products/FreeRTOS-Plus-IO/Device/LPC17xx/FreeRTOS_lpc17xx_DriverInterface.o
 .debug_aranges
                0x00000c38       0x48 ./Source/FreeRTOS-Products/FreeRTOS-Plus-IO/Device/LPC17xx/FreeRTOS_lpc17xx_i2c.o
 .debug_aranges
                0x00000c80       0x48 ./Source/FreeRTOS-Products/FreeRTOS-Plus-IO/Device/LPC17xx/FreeRTOS_lpc17xx_ssp.o
 .debug_aranges
                0x00000cc8       0x48 ./Source/FreeRTOS-Products/FreeRTOS-Plus-IO/Device/LPC17xx/FreeRTOS_lpc17xx_uart.o
 .debug_aranges
                0x00000d10       0x28 ./Source/FreeRTOS-Products/FreeRTOS-Plus-IO/Common/FreeRTOS_DriverInterface.o
 .debug_aranges
                0x00000d38       0x20 ./Source/FreeRTOS-Products/FreeRTOS-Plus-IO/Common/FreeRTOS_IOUtils.o
 .debug_aranges
                0x00000d58       0x50 ./Source/FreeRTOS-Products/FreeRTOS-Plus-IO/Common/IOUtils_CharQueueTxAndRx.o
 .debug_aranges
                0x00000da8       0x38 ./Source/FreeRTOS-Products/FreeRTOS-Plus-IO/Common/IOUtils_CircularBufferRx.o
 .debug_aranges
                0x00000de0       0x30 ./Source/FreeRTOS-Products/FreeRTOS-Plus-IO/Common/IOUtils_ZeroCopyTx.o
 .debug_aranges
                0x00000e10       0x40 ./Source/FreeRTOS-Products/FreeRTOS-Plus-CLI/FreeRTOS_CLI.o
 .debug_aranges
                0x00000e50       0x38 ./Source/FreeRTOS-Products/FreeRTOS/croutine.o
 .debug_aranges
                0x00000e88       0x40 ./Source/FreeRTOS-Products/FreeRTOS/list.o
 .debug_aranges
                0x00000ec8       0xd0 ./Source/FreeRTOS-Products/FreeRTOS/queue.o
 .debug_aranges
                0x00000f98      0x150 ./Source/FreeRTOS-Products/FreeRTOS/tasks.o
 .debug_aranges
                0x000010e8       0x60 ./Source/FreeRTOS-Products/FreeRTOS/timers.o
 .debug_aranges
                0x00001148       0x68 ./Source/FreeRTOS-Products/FreeRTOS/portable/GCC/ARM_CM3/port.o
 .debug_aranges
                0x000011b0      0x148 ./Source/FatFS/ff.o
 .debug_aranges
                0x000012f8       0x90 ./Source/FatFS/mmc.o
 .debug_aranges
                0x00001388       0x38 ./Source/FatFS/syscall.o
 .debug_aranges
                0x000013c0       0x58 ./Source/Examples/SSP/SPI-interface-to-SD-card.o
 .debug_aranges
                0x00001418       0x28 ./Source/Examples/GPIO/GPIO-output-and-software-timers.o
 .debug_aranges
                0x00001440       0xf0 C:\Users\m.paffi.ATESISTEMI\Documents\CCTA-OS\lpc17xx.cmsis.driver.library\Debug\liblpc17xx.cmsis.driver.library.a(lpc17xx_emac.o)
 .debug_aranges
                0x00001530       0xf8 C:\Users\m.paffi.ATESISTEMI\Documents\CCTA-OS\lpc17xx.cmsis.driver.library\Debug\liblpc17xx.cmsis.driver.library.a(lpc17xx_gpio.o)
 .debug_aranges
                0x00001628       0xd0 C:\Users\m.paffi.ATESISTEMI\Documents\CCTA-OS\lpc17xx.cmsis.driver.library\Debug\liblpc17xx.cmsis.driver.library.a(lpc17xx_i2c.o)
 .debug_aranges
                0x000016f8       0x20 C:\Users\m.paffi.ATESISTEMI\Documents\CCTA-OS\lpc17xx.cmsis.driver.library\Debug\liblpc17xx.cmsis.driver.library.a(lpc17xx_libcfg_default.o)
 .debug_aranges
                0x00001718       0x48 C:\Users\m.paffi.ATESISTEMI\Documents\CCTA-OS\lpc17xx.cmsis.driver.library\Debug\liblpc17xx.cmsis.driver.library.a(lpc17xx_pinsel.o)
 .debug_aranges
                0x00001760       0xa8 C:\Users\m.paffi.ATESISTEMI\Documents\CCTA-OS\lpc17xx.cmsis.driver.library\Debug\liblpc17xx.cmsis.driver.library.a(lpc17xx_ssp.o)
 .debug_aranges
                0x00001808      0x100 C:\Users\m.paffi.ATESISTEMI\Documents\CCTA-OS\lpc17xx.cmsis.driver.library\Debug\liblpc17xx.cmsis.driver.library.a(lpc17xx_uart.o)
 .debug_aranges
                0x00001908       0x58 C:\Users\m.paffi.ATESISTEMI\Documents\CCTA-OS\lpc17xx.cmsis.driver.library\Debug\liblpc17xx.cmsis.driver.library.a(lpc17xx_clkpwr.o)
 .debug_aranges
                0x00001960       0x28 C:\Users\m.paffi.ATESISTEMI\Documents\CCTA-OS\CMSISv2p00_LPC17xx\Debug\libCMSISv2p00_LPC17xx.a(system_LPC17xx.o)

.debug_ranges   0x00000000     0x1bf8
 .debug_ranges  0x00000000       0x78 ./Source/cr_startup_lpc176x.o
 .debug_ranges  0x00000078       0xb0 ./Source/main.o
 .debug_ranges  0x00000128       0x48 ./Source/printf-stdarg.o
 .debug_ranges  0x00000170      0x130 ./Source/lwIP/netif/etharp.o
 .debug_ranges  0x000002a0       0x80 ./Source/lwIP/netif/ethernetif.o
 .debug_ranges  0x00000320       0xa8 ./Source/lwIP/netif/sys_arch.o
 .debug_ranges  0x000003c8       0x18 ./Source/lwIP/lwIP_Apps/lwIP_Apps.o
 .debug_ranges  0x000003e0       0x30 ./Source/lwIP/lwIP_Apps/apps/httpserver_raw/fs.o
 .debug_ranges  0x00000410      0x188 ./Source/lwIP/lwIP_Apps/apps/httpserver_raw/httpd.o
 .debug_ranges  0x00000598       0x10 ./Source/lwIP/lwIP_Apps/apps/BasicSocketCommandServer/BasicSocketCommandServer.o
 .debug_ranges  0x000005a8       0x28 ./Source/lwIP/core/def.o
 .debug_ranges  0x000005d0       0x10 ./Source/lwIP/core/init.o
 .debug_ranges  0x000005e0       0x40 ./Source/lwIP/core/lwip_timers.o
 .debug_ranges  0x00000620       0x78 ./Source/lwIP/core/mem.o
 .debug_ranges  0x00000698       0x20 ./Source/lwIP/core/memp.o
 .debug_ranges  0x000006b8       0x70 ./Source/lwIP/core/netif.o
 .debug_ranges  0x00000728       0xc0 ./Source/lwIP/core/pbuf.o
 .debug_ranges  0x000007e8       0x10 ./Source/lwIP/core/sys.o
 .debug_ranges  0x000007f8      0x138 ./Source/lwIP/core/tcp.o
 .debug_ranges  0x00000930       0x70 ./Source/lwIP/core/tcp_in.o
 .debug_ranges  0x000009a0       0xb0 ./Source/lwIP/core/tcp_out.o
 .debug_ranges  0x00000a50       0x18 ./Source/lwIP/core/ipv4/icmp.o
 .debug_ranges  0x00000a68       0x30 ./Source/lwIP/core/ipv4/inet_chksum.o
 .debug_ranges  0x00000a98       0x40 ./Source/lwIP/core/ipv4/ip.o
 .debug_ranges  0x00000ad8       0x38 ./Source/lwIP/core/ipv4/ip_addr.o
 .debug_ranges  0x00000b10       0x98 ./Source/lwIP/api/api_lib.o
 .debug_ranges  0x00000ba8       0xd8 ./Source/lwIP/api/api_msg.o
 .debug_ranges  0x00000c80       0x50 ./Source/lwIP/api/netbuf.o
 .debug_ranges  0x00000cd0      0x160 ./Source/lwIP/api/sockets.o
 .debug_ranges  0x00000e30       0x58 ./Source/lwIP/api/tcpip.o
 .debug_ranges  0x00000e88       0x28 ./Source/MemMang/heap_2.o
 .debug_ranges  0x00000eb0       0x10 ./Source/FreeRTOS-Products/FreeRTOS-Plus-IO/Device/LPC17xx/FreeRTOS_lpc17xx_DriverInterface.o
 .debug_ranges  0x00000ec0       0x50 ./Source/FreeRTOS-Products/FreeRTOS-Plus-IO/Device/LPC17xx/FreeRTOS_lpc17xx_i2c.o
 .debug_ranges  0x00000f10       0x68 ./Source/FreeRTOS-Products/FreeRTOS-Plus-IO/Device/LPC17xx/FreeRTOS_lpc17xx_ssp.o
 .debug_ranges  0x00000f78       0x38 ./Source/FreeRTOS-Products/FreeRTOS-Plus-IO/Device/LPC17xx/FreeRTOS_lpc17xx_uart.o
 .debug_ranges  0x00000fb0       0x18 ./Source/FreeRTOS-Products/FreeRTOS-Plus-IO/Common/FreeRTOS_DriverInterface.o
 .debug_ranges  0x00000fc8       0x10 ./Source/FreeRTOS-Products/FreeRTOS-Plus-IO/Common/FreeRTOS_IOUtils.o
 .debug_ranges  0x00000fd8       0x40 ./Source/FreeRTOS-Products/FreeRTOS-Plus-IO/Common/IOUtils_CharQueueTxAndRx.o
 .debug_ranges  0x00001018       0x28 ./Source/FreeRTOS-Products/FreeRTOS-Plus-IO/Common/IOUtils_CircularBufferRx.o
 .debug_ranges  0x00001040       0x20 ./Source/FreeRTOS-Products/FreeRTOS-Plus-IO/Common/IOUtils_ZeroCopyTx.o
 .debug_ranges  0x00001060       0x30 ./Source/FreeRTOS-Products/FreeRTOS-Plus-CLI/FreeRTOS_CLI.o
 .debug_ranges  0x00001090       0x70 ./Source/FreeRTOS-Products/FreeRTOS/croutine.o
 .debug_ranges  0x00001100       0x30 ./Source/FreeRTOS-Products/FreeRTOS/list.o
 .debug_ranges  0x00001130       0xc0 ./Source/FreeRTOS-Products/FreeRTOS/queue.o
 .debug_ranges  0x000011f0      0x1e8 ./Source/FreeRTOS-Products/FreeRTOS/tasks.o
 .debug_ranges  0x000013d8       0x50 ./Source/FreeRTOS-Products/FreeRTOS/timers.o
 .debug_ranges  0x00001428       0x58 ./Source/FreeRTOS-Products/FreeRTOS/portable/GCC/ARM_CM3/port.o
 .debug_ranges  0x00001480      0x1b8 ./Source/FatFS/ff.o
 .debug_ranges  0x00001638       0x80 ./Source/FatFS/mmc.o
 .debug_ranges  0x000016b8       0x28 ./Source/FatFS/syscall.o
 .debug_ranges  0x000016e0       0x48 ./Source/Examples/SSP/SPI-interface-to-SD-card.o
 .debug_ranges  0x00001728       0x18 ./Source/Examples/GPIO/GPIO-output-and-software-timers.o
 .debug_ranges  0x00001740       0xe0 C:\Users\m.paffi.ATESISTEMI\Documents\CCTA-OS\lpc17xx.cmsis.driver.library\Debug\liblpc17xx.cmsis.driver.library.a(lpc17xx_emac.o)
 .debug_ranges  0x00001820       0xe8 C:\Users\m.paffi.ATESISTEMI\Documents\CCTA-OS\lpc17xx.cmsis.driver.library\Debug\liblpc17xx.cmsis.driver.library.a(lpc17xx_gpio.o)
 .debug_ranges  0x00001908       0xc0 C:\Users\m.paffi.ATESISTEMI\Documents\CCTA-OS\lpc17xx.cmsis.driver.library\Debug\liblpc17xx.cmsis.driver.library.a(lpc17xx_i2c.o)
 .debug_ranges  0x000019c8       0x10 C:\Users\m.paffi.ATESISTEMI\Documents\CCTA-OS\lpc17xx.cmsis.driver.library\Debug\liblpc17xx.cmsis.driver.library.a(lpc17xx_libcfg_default.o)
 .debug_ranges  0x000019d8       0x38 C:\Users\m.paffi.ATESISTEMI\Documents\CCTA-OS\lpc17xx.cmsis.driver.library\Debug\liblpc17xx.cmsis.driver.library.a(lpc17xx_pinsel.o)
 .debug_ranges  0x00001a10       0x98 C:\Users\m.paffi.ATESISTEMI\Documents\CCTA-OS\lpc17xx.cmsis.driver.library\Debug\liblpc17xx.cmsis.driver.library.a(lpc17xx_ssp.o)
 .debug_ranges  0x00001aa8       0xf0 C:\Users\m.paffi.ATESISTEMI\Documents\CCTA-OS\lpc17xx.cmsis.driver.library\Debug\liblpc17xx.cmsis.driver.library.a(lpc17xx_uart.o)
 .debug_ranges  0x00001b98       0x48 C:\Users\m.paffi.ATESISTEMI\Documents\CCTA-OS\lpc17xx.cmsis.driver.library\Debug\liblpc17xx.cmsis.driver.library.a(lpc17xx_clkpwr.o)
 .debug_ranges  0x00001be0       0x18 C:\Users\m.paffi.ATESISTEMI\Documents\CCTA-OS\CMSISv2p00_LPC17xx\Debug\libCMSISv2p00_LPC17xx.a(system_LPC17xx.o)

.debug_str      0x00000000     0x8370
 .debug_str     0x00000000      0x2b1 ./Source/cr_startup_lpc176x.o
                                0x2d9 (size before relaxing)
 .debug_str     0x000002b1      0x3ed ./Source/main.o
                                0x4ed (size before relaxing)
 .debug_str     0x0000069e       0x86 ./Source/printf-stdarg.o
                                0x10d (size before relaxing)
 .debug_str     0x00000724      0x452 ./Source/lwIP/netif/etharp.o
                                0x5a2 (size before relaxing)
 .debug_str     0x00000b76      0x5ca ./Source/lwIP/netif/ethernetif.o
                                0x8d8 (size before relaxing)
 .debug_str     0x00001140      0x27f ./Source/lwIP/netif/sys_arch.o
                                0x3d5 (size before relaxing)
 .debug_str     0x000013bf       0xd5 ./Source/lwIP/lwIP_Apps/lwIP_Apps.o
                                0x2a6 (size before relaxing)
 .debug_str     0x00001494      0x1a0 ./Source/lwIP/lwIP_Apps/apps/httpserver_raw/fs.o
                                0x2b6 (size before relaxing)
 .debug_str     0x00001634      0x51c ./Source/lwIP/lwIP_Apps/apps/httpserver_raw/httpd.o
                                0x74e (size before relaxing)
 .debug_str     0x00001b50      0x163 ./Source/lwIP/lwIP_Apps/apps/BasicSocketCommandServer/BasicSocketCommandServer.o
                                0x280 (size before relaxing)
 .debug_str     0x00001cb3       0x46 ./Source/lwIP/core/def.o
                                0x132 (size before relaxing)
 .debug_str     0x00001cf9       0x1b ./Source/lwIP/core/dhcp.o
                                 0xfb (size before relaxing)
 .debug_str     0x00001d14       0x1a ./Source/lwIP/core/dns.o
                                 0xfa (size before relaxing)
 .debug_str     0x00001d2e       0x25 ./Source/lwIP/core/init.o
                                0x10a (size before relaxing)
 .debug_str     0x00001d53      0x14c ./Source/lwIP/core/lwip_timers.o
                                0x5dd (size before relaxing)
 .debug_str     0x00001e9f       0xa7 ./Source/lwIP/core/mem.o
                                0x1f4 (size before relaxing)
 .debug_str     0x00001f46       0x7a ./Source/lwIP/core/memp.o
                                0x247 (size before relaxing)
 .debug_str     0x00001fc0      0x12c ./Source/lwIP/core/netif.o
                                0x5c9 (size before relaxing)
 .debug_str     0x000020ec      0x1cf ./Source/lwIP/core/pbuf.o
                                0x446 (size before relaxing)
 .debug_str     0x000022bb       0x1a ./Source/lwIP/core/raw.o
                                 0xfa (size before relaxing)
 .debug_str     0x000022d5       0x1c ./Source/lwIP/core/stats.o
                                 0xfc (size before relaxing)
 .debug_str     0x000022f1       0x2e ./Source/lwIP/core/sys.o
                                0x147 (size before relaxing)
 .debug_str     0x0000231f      0x2fb ./Source/lwIP/core/tcp.o
                                0x8a9 (size before relaxing)
 .debug_str     0x0000261a      0x162 ./Source/lwIP/core/tcp_in.o
                                0x707 (size before relaxing)
 .debug_str     0x0000277c      0x1ba ./Source/lwIP/core/tcp_out.o
                                0x78a (size before relaxing)
 .debug_str     0x00002936       0x1a ./Source/lwIP/core/udp.o
                                 0xfa (size before relaxing)
 .debug_str     0x00002950       0x22 ./Source/lwIP/core/ipv4/autoip.o
                                0x102 (size before relaxing)
 .debug_str     0x00002972       0xdc ./Source/lwIP/core/ipv4/icmp.o
                                0x389 (size before relaxing)
 .debug_str     0x00002a4e       0x20 ./Source/lwIP/core/ipv4/igmp.o
                                0x100 (size before relaxing)
 .debug_str     0x00002a6e       0x20 ./Source/lwIP/core/ipv4/inet.o
                                0x100 (size before relaxing)
 .debug_str     0x00002a8e       0xab ./Source/lwIP/core/ipv4/inet_chksum.o
                                0x1fc (size before relaxing)
 .debug_str     0x00002b39       0x90 ./Source/lwIP/core/ipv4/ip.o
                                0x34e (size before relaxing)
 .debug_str     0x00002bc9       0xad ./Source/lwIP/core/ipv4/ip_addr.o
                                0x284 (size before relaxing)
 .debug_str     0x00002c76       0x23 ./Source/lwIP/core/ipv4/ip_frag.o
                                0x108 (size before relaxing)
 .debug_str     0x00002c99      0x35b ./Source/lwIP/api/api_lib.o
                                0x86a (size before relaxing)
 .debug_str     0x00002ff4      0x195 ./Source/lwIP/api/api_msg.o
                                0x886 (size before relaxing)
 .debug_str     0x00003189       0x19 ./Source/lwIP/api/err.o
                                 0xf9 (size before relaxing)
 .debug_str     0x000031a2       0x95 ./Source/lwIP/api/netbuf.o
                                0x2e6 (size before relaxing)
 .debug_str     0x00003237       0x1b ./Source/lwIP/api/netdb.o
                                 0xfb (size before relaxing)
 .debug_str     0x00003252       0x1e ./Source/lwIP/api/netifapi.o
                                 0xfe (size before relaxing)
 .debug_str     0x00003270      0x3d2 ./Source/lwIP/api/sockets.o
                                0xb10 (size before relaxing)
 .debug_str     0x00003642      0x15b ./Source/lwIP/api/tcpip.o
                                0x69b (size before relaxing)
 .debug_str     0x0000379d      0x137 ./Source/MemMang/heap_2.o
                                0x253 (size before relaxing)
 .debug_str     0x000038d4      0x233 ./Source/FreeRTOS-Products/FreeRTOS-Plus-IO/Device/LPC17xx/FreeRTOS_lpc17xx_DriverInterface.o
                                0x34b (size before relaxing)
 .debug_str     0x00003b07      0x462 ./Source/FreeRTOS-Products/FreeRTOS-Plus-IO/Device/LPC17xx/FreeRTOS_lpc17xx_i2c.o
                                0xaa9 (size before relaxing)
 .debug_str     0x00003f69      0x2eb ./Source/FreeRTOS-Products/FreeRTOS-Plus-IO/Device/LPC17xx/FreeRTOS_lpc17xx_ssp.o
                                0xb1e (size before relaxing)
 .debug_str     0x00004254      0x360 ./Source/FreeRTOS-Products/FreeRTOS-Plus-IO/Device/LPC17xx/FreeRTOS_lpc17xx_uart.o
                                0xa44 (size before relaxing)
 .debug_str     0x000045b4       0xca ./Source/FreeRTOS-Products/FreeRTOS-Plus-IO/Common/FreeRTOS_DriverInterface.o
                                0x4d4 (size before relaxing)
 .debug_str     0x0000467e       0x81 ./Source/FreeRTOS-Products/FreeRTOS-Plus-IO/Common/FreeRTOS_IOUtils.o
                                0x330 (size before relaxing)
 .debug_str     0x000046ff      0x1a8 ./Source/FreeRTOS-Products/FreeRTOS-Plus-IO/Common/IOUtils_CharQueueTxAndRx.o
                                0x572 (size before relaxing)
 .debug_str     0x000048a7      0x12b ./Source/FreeRTOS-Products/FreeRTOS-Plus-IO/Common/IOUtils_CircularBufferRx.o
                                0x508 (size before relaxing)
 .debug_str     0x000049d2       0xa5 ./Source/FreeRTOS-Products/FreeRTOS-Plus-IO/Common/IOUtils_ZeroCopyTx.o
                                0x421 (size before relaxing)
 .debug_str     0x00004a77      0x21e ./Source/FreeRTOS-Products/FreeRTOS-Plus-CLI/FreeRTOS_CLI.o
                                0x3c8 (size before relaxing)
 .debug_str     0x00004c95      0x34c ./Source/FreeRTOS-Products/FreeRTOS/croutine.o
                                0x44e (size before relaxing)
 .debug_str     0x00004fe1       0xa6 ./Source/FreeRTOS-Products/FreeRTOS/list.o
                                0x23d (size before relaxing)
 .debug_str     0x00005087      0x426 ./Source/FreeRTOS-Products/FreeRTOS/queue.o
                                0x64c (size before relaxing)
 .debug_str     0x000054ad      0x7e2 ./Source/FreeRTOS-Products/FreeRTOS/tasks.o
                                0xa96 (size before relaxing)
 .debug_str     0x00005c8f      0x34b ./Source/FreeRTOS-Products/FreeRTOS/timers.o
                                0x54c (size before relaxing)
 .debug_str     0x00005fda      0x111 ./Source/FreeRTOS-Products/FreeRTOS/portable/GCC/ARM_CM3/port.o
                                0x26b (size before relaxing)
 .debug_str     0x000060eb      0x45d ./Source/FatFS/ff.o
                                0x5c4 (size before relaxing)
 .debug_str     0x00006548      0x24a ./Source/FatFS/mmc.o
                                0x5cf (size before relaxing)
 .debug_str     0x00006792       0x52 ./Source/FatFS/syscall.o
                                0x171 (size before relaxing)
 .debug_str     0x000067e4      0x27a ./Source/Examples/SSP/SPI-interface-to-SD-card.o
                                0x6ed (size before relaxing)
 .debug_str     0x00006a5e       0x96 ./Source/Examples/GPIO/GPIO-output-and-software-timers.o
                                0x1c9 (size before relaxing)
 .debug_str     0x00006af4      0x396 C:\Users\m.paffi.ATESISTEMI\Documents\CCTA-OS\lpc17xx.cmsis.driver.library\Debug\liblpc17xx.cmsis.driver.library.a(lpc17xx_emac.o)
                                0x771 (size before relaxing)
 .debug_str     0x00006e8a      0x427 C:\Users\m.paffi.ATESISTEMI\Documents\CCTA-OS\lpc17xx.cmsis.driver.library\Debug\liblpc17xx.cmsis.driver.library.a(lpc17xx_gpio.o)
                                0x576 (size before relaxing)
 .debug_str     0x000072b1      0x350 C:\Users\m.paffi.ATESISTEMI\Documents\CCTA-OS\lpc17xx.cmsis.driver.library\Debug\liblpc17xx.cmsis.driver.library.a(lpc17xx_i2c.o)
                                0x871 (size before relaxing)
 .debug_str     0x00007601       0x35 C:\Users\m.paffi.ATESISTEMI\Documents\CCTA-OS\lpc17xx.cmsis.driver.library\Debug\liblpc17xx.cmsis.driver.library.a(lpc17xx_libcfg_default.o)
                                0x138 (size before relaxing)
 .debug_str     0x00007636      0x20c C:\Users\m.paffi.ATESISTEMI\Documents\CCTA-OS\lpc17xx.cmsis.driver.library\Debug\liblpc17xx.cmsis.driver.library.a(lpc17xx_pinsel.o)
                                0x378 (size before relaxing)
 .debug_str     0x00007842      0x1cc C:\Users\m.paffi.ATESISTEMI\Documents\CCTA-OS\lpc17xx.cmsis.driver.library\Debug\liblpc17xx.cmsis.driver.library.a(lpc17xx_ssp.o)
                                0x418 (size before relaxing)
 .debug_str     0x00007a0e      0x72b C:\Users\m.paffi.ATESISTEMI\Documents\CCTA-OS\lpc17xx.cmsis.driver.library\Debug\liblpc17xx.cmsis.driver.library.a(lpc17xx_uart.o)
                                0xb75 (size before relaxing)
 .debug_str     0x00008139      0x1b7 C:\Users\m.paffi.ATESISTEMI\Documents\CCTA-OS\lpc17xx.cmsis.driver.library\Debug\liblpc17xx.cmsis.driver.library.a(lpc17xx_clkpwr.o)
                                0x39f (size before relaxing)
 .debug_str     0x000082f0       0x80 C:\Users\m.paffi.ATESISTEMI\Documents\CCTA-OS\CMSISv2p00_LPC17xx\Debug\libCMSISv2p00_LPC17xx.a(system_LPC17xx.o)
                                0x27d (size before relaxing)

.comment        0x00000000      0x284
 .comment       0x00000000       0x2a ./Source/cr_startup_lpc176x.o
                                 0x2b (size before relaxing)
 .comment       0x00000000       0x2b ./Source/main.o
 .comment       0x00000000       0x2b ./Source/printf-stdarg.o
 .comment       0x00000000       0x2b ./Source/lwIP/netif/etharp.o
 .comment       0x00000000       0x2b ./Source/lwIP/netif/ethernetif.o
 .comment       0x00000000       0x2b ./Source/lwIP/netif/sys_arch.o
 .comment       0x00000000       0x2b ./Source/lwIP/lwIP_Apps/lwIP_Apps.o
 .comment       0x00000000       0x2b ./Source/lwIP/lwIP_Apps/apps/httpserver_raw/fs.o
 .comment       0x00000000       0x2b ./Source/lwIP/lwIP_Apps/apps/httpserver_raw/httpd.o
 .comment       0x00000000       0x2b ./Source/lwIP/lwIP_Apps/apps/BasicSocketCommandServer/BasicSocketCommandServer.o
 .comment       0x00000000       0x2b ./Source/lwIP/core/def.o
 .comment       0x00000000       0x2b ./Source/lwIP/core/dhcp.o
 .comment       0x00000000       0x2b ./Source/lwIP/core/dns.o
 .comment       0x00000000       0x2b ./Source/lwIP/core/init.o
 .comment       0x00000000       0x2b ./Source/lwIP/core/lwip_timers.o
 .comment       0x00000000       0x2b ./Source/lwIP/core/mem.o
 .comment       0x00000000       0x2b ./Source/lwIP/core/memp.o
 .comment       0x00000000       0x2b ./Source/lwIP/core/netif.o
 .comment       0x00000000       0x2b ./Source/lwIP/core/pbuf.o
 .comment       0x00000000       0x2b ./Source/lwIP/core/raw.o
 .comment       0x00000000       0x2b ./Source/lwIP/core/stats.o
 .comment       0x00000000       0x2b ./Source/lwIP/core/sys.o
 .comment       0x00000000       0x2b ./Source/lwIP/core/tcp.o
 .comment       0x00000000       0x2b ./Source/lwIP/core/tcp_in.o
 .comment       0x00000000       0x2b ./Source/lwIP/core/tcp_out.o
 .comment       0x00000000       0x2b ./Source/lwIP/core/udp.o
 .comment       0x00000000       0x2b ./Source/lwIP/core/ipv4/autoip.o
 .comment       0x00000000       0x2b ./Source/lwIP/core/ipv4/icmp.o
 .comment       0x00000000       0x2b ./Source/lwIP/core/ipv4/igmp.o
 .comment       0x00000000       0x2b ./Source/lwIP/core/ipv4/inet.o
 .comment       0x00000000       0x2b ./Source/lwIP/core/ipv4/inet_chksum.o
 .comment       0x00000000       0x2b ./Source/lwIP/core/ipv4/ip.o
 .comment       0x00000000       0x2b ./Source/lwIP/core/ipv4/ip_addr.o
 .comment       0x00000000       0x2b ./Source/lwIP/core/ipv4/ip_frag.o
 .comment       0x00000000       0x2b ./Source/lwIP/api/api_lib.o
 .comment       0x00000000       0x2b ./Source/lwIP/api/api_msg.o
 .comment       0x00000000       0x2b ./Source/lwIP/api/err.o
 .comment       0x00000000       0x2b ./Source/lwIP/api/netbuf.o
 .comment       0x00000000       0x2b ./Source/lwIP/api/netdb.o
 .comment       0x00000000       0x2b ./Source/lwIP/api/netifapi.o
 .comment       0x00000000       0x2b ./Source/lwIP/api/sockets.o
 .comment       0x00000000       0x2b ./Source/lwIP/api/tcpip.o
 .comment       0x00000000       0x2b ./Source/MemMang/heap_2.o
 .comment       0x00000000       0x2b ./Source/FreeRTOS-Products/FreeRTOS-Plus-IO/Device/LPC17xx/FreeRTOS_lpc17xx_DriverInterface.o
 .comment       0x00000000       0x2b ./Source/FreeRTOS-Products/FreeRTOS-Plus-IO/Device/LPC17xx/FreeRTOS_lpc17xx_i2c.o
 .comment       0x00000000       0x2b ./Source/FreeRTOS-Products/FreeRTOS-Plus-IO/Device/LPC17xx/FreeRTOS_lpc17xx_ssp.o
 .comment       0x00000000       0x2b ./Source/FreeRTOS-Products/FreeRTOS-Plus-IO/Device/LPC17xx/FreeRTOS_lpc17xx_uart.o
 .comment       0x00000000       0x2b ./Source/FreeRTOS-Products/FreeRTOS-Plus-IO/Common/FreeRTOS_DriverInterface.o
 .comment       0x00000000       0x2b ./Source/FreeRTOS-Products/FreeRTOS-Plus-IO/Common/FreeRTOS_IOUtils.o
 .comment       0x00000000       0x2b ./Source/FreeRTOS-Products/FreeRTOS-Plus-IO/Common/IOUtils_CharQueueTxAndRx.o
 .comment       0x00000000       0x2b ./Source/FreeRTOS-Products/FreeRTOS-Plus-IO/Common/IOUtils_CircularBufferRx.o
 .comment       0x00000000       0x2b ./Source/FreeRTOS-Products/FreeRTOS-Plus-IO/Common/IOUtils_ZeroCopyTx.o
 .comment       0x00000000       0x2b ./Source/FreeRTOS-Products/FreeRTOS-Plus-CLI/FreeRTOS_CLI.o
 .comment       0x00000000       0x2b ./Source/FreeRTOS-Products/FreeRTOS/croutine.o
 .comment       0x00000000       0x2b ./Source/FreeRTOS-Products/FreeRTOS/list.o
 .comment       0x00000000       0x2b ./Source/FreeRTOS-Products/FreeRTOS/queue.o
 .comment       0x00000000       0x2b ./Source/FreeRTOS-Products/FreeRTOS/tasks.o
 .comment       0x00000000       0x2b ./Source/FreeRTOS-Products/FreeRTOS/timers.o
 .comment       0x00000000       0x2b ./Source/FreeRTOS-Products/FreeRTOS/portable/GCC/ARM_CM3/port.o
 .comment       0x00000000       0x2b ./Source/FatFS/ff.o
 .comment       0x00000000       0x2b ./Source/FatFS/mmc.o
 .comment       0x00000000       0x2b ./Source/FatFS/syscall.o
 .comment       0x00000000       0x2b ./Source/Examples/SSP/SPI-interface-to-SD-card.o
 .comment       0x00000000       0x2b ./Source/Examples/GPIO/GPIO-output-and-software-timers.o
 .comment       0x00000000       0x2b C:\Users\m.paffi.ATESISTEMI\Documents\CCTA-OS\lpc17xx.cmsis.driver.library\Debug\liblpc17xx.cmsis.driver.library.a(lpc17xx_emac.o)
 .comment       0x00000000       0x2b C:\Users\m.paffi.ATESISTEMI\Documents\CCTA-OS\lpc17xx.cmsis.driver.library\Debug\liblpc17xx.cmsis.driver.library.a(lpc17xx_gpio.o)
 .comment       0x00000000       0x2b C:\Users\m.paffi.ATESISTEMI\Documents\CCTA-OS\lpc17xx.cmsis.driver.library\Debug\liblpc17xx.cmsis.driver.library.a(lpc17xx_i2c.o)
 .comment       0x00000000       0x2b C:\Users\m.paffi.ATESISTEMI\Documents\CCTA-OS\lpc17xx.cmsis.driver.library\Debug\liblpc17xx.cmsis.driver.library.a(lpc17xx_libcfg_default.o)
 .comment       0x00000000       0x2b C:\Users\m.paffi.ATESISTEMI\Documents\CCTA-OS\lpc17xx.cmsis.driver.library\Debug\liblpc17xx.cmsis.driver.library.a(lpc17xx_pinsel.o)
 .comment       0x00000000       0x2b C:\Users\m.paffi.ATESISTEMI\Documents\CCTA-OS\lpc17xx.cmsis.driver.library\Debug\liblpc17xx.cmsis.driver.library.a(lpc17xx_ssp.o)
 .comment       0x00000000       0x2b C:\Users\m.paffi.ATESISTEMI\Documents\CCTA-OS\lpc17xx.cmsis.driver.library\Debug\liblpc17xx.cmsis.driver.library.a(lpc17xx_uart.o)
 .comment       0x00000000       0x2b C:\Users\m.paffi.ATESISTEMI\Documents\CCTA-OS\lpc17xx.cmsis.driver.library\Debug\liblpc17xx.cmsis.driver.library.a(lpc17xx_clkpwr.o)
 .comment       0x00000000       0x2b C:\Users\m.paffi.ATESISTEMI\Documents\CCTA-OS\CMSISv2p00_LPC17xx\Debug\libCMSISv2p00_LPC17xx.a(system_LPC17xx.o)
 .comment       0x0000002a       0x2b c:/code_red/redsuitenxp_4.0.6_249/redsuite/tools/bin/../lib/gcc/arm-none-eabi/4.5.1/../../../../arm-none-eabi/lib/thumb2\libcr_nohost.a(_cr__main.o)
 .comment       0x00000000       0x2b c:/code_red/redsuitenxp_4.0.6_249/redsuite/tools/bin/../lib/gcc/arm-none-eabi/4.5.1/../../../../arm-none-eabi/lib/thumb2\libcr_c.a(fflush.o)
 .comment       0x00000000       0x2b c:/code_red/redsuitenxp_4.0.6_249/redsuite/tools/bin/../lib/gcc/arm-none-eabi/4.5.1/../../../../arm-none-eabi/lib/thumb2\libcr_c.a(initio.o)
 .comment       0x00000000       0x2b c:/code_red/redsuitenxp_4.0.6_249/redsuite/tools/bin/../lib/gcc/arm-none-eabi/4.5.1/../../../../arm-none-eabi/lib/thumb2\libcr_c.a(memcmp.o)
 .comment       0x00000000       0x2b c:/code_red/redsuitenxp_4.0.6_249/redsuite/tools/bin/../lib/gcc/arm-none-eabi/4.5.1/../../../../arm-none-eabi/lib/thumb2\libcr_c.a(setvbuf.o)
 .comment       0x00000000       0x2b c:/code_red/redsuitenxp_4.0.6_249/redsuite/tools/bin/../lib/gcc/arm-none-eabi/4.5.1/../../../../arm-none-eabi/lib/thumb2\libcr_c.a(stdio.o)
 .comment       0x00000000       0x2b c:/code_red/redsuitenxp_4.0.6_249/redsuite/tools/bin/../lib/gcc/arm-none-eabi/4.5.1/../../../../arm-none-eabi/lib/thumb2\libcr_c.a(stdlib.o)
 .comment       0x00000000       0x2b c:/code_red/redsuitenxp_4.0.6_249/redsuite/tools/bin/../lib/gcc/arm-none-eabi/4.5.1/../../../../arm-none-eabi/lib/thumb2\libcr_c.a(strcat.o)
 .comment       0x00000000       0x2b c:/code_red/redsuitenxp_4.0.6_249/redsuite/tools/bin/../lib/gcc/arm-none-eabi/4.5.1/../../../../arm-none-eabi/lib/thumb2\libcr_c.a(strchr.o)
 .comment       0x00000000       0x2b c:/code_red/redsuitenxp_4.0.6_249/redsuite/tools/bin/../lib/gcc/arm-none-eabi/4.5.1/../../../../arm-none-eabi/lib/thumb2\libcr_c.a(strcmp.o)
 .comment       0x00000000       0x2b c:/code_red/redsuitenxp_4.0.6_249/redsuite/tools/bin/../lib/gcc/arm-none-eabi/4.5.1/../../../../arm-none-eabi/lib/thumb2\libcr_c.a(strcpy.o)
 .comment       0x00000000       0x2b c:/code_red/redsuitenxp_4.0.6_249/redsuite/tools/bin/../lib/gcc/arm-none-eabi/4.5.1/../../../../arm-none-eabi/lib/thumb2\libcr_c.a(strlen.o)
 .comment       0x00000000       0x2b c:/code_red/redsuitenxp_4.0.6_249/redsuite/tools/bin/../lib/gcc/arm-none-eabi/4.5.1/../../../../arm-none-eabi/lib/thumb2\libcr_c.a(strncmp.o)
 .comment       0x00000000       0x2b c:/code_red/redsuitenxp_4.0.6_249/redsuite/tools/bin/../lib/gcc/arm-none-eabi/4.5.1/../../../../arm-none-eabi/lib/thumb2\libcr_c.a(strncpy.o)
 .comment       0x00000000       0x2b c:/code_red/redsuitenxp_4.0.6_249/redsuite/tools/bin/../lib/gcc/arm-none-eabi/4.5.1/../../../../arm-none-eabi/lib/thumb2\libcr_c.a(strstr.o)
 .comment       0x00000000       0x2b c:/code_red/redsuitenxp_4.0.6_249/redsuite/tools/bin/../lib/gcc/arm-none-eabi/4.5.1/../../../../arm-none-eabi/lib/thumb2\libcr_c.a(memcpy.o)
 .comment       0x00000000       0x2b c:/code_red/redsuitenxp_4.0.6_249/redsuite/tools/bin/../lib/gcc/arm-none-eabi/4.5.1/../../../../arm-none-eabi/lib/thumb2\libcr_c.a(memset.o)
 .comment       0x00000000       0x2b c:/code_red/redsuitenxp_4.0.6_249/redsuite/tools/bin/../lib/gcc/arm-none-eabi/4.5.1/../../../../arm-none-eabi/lib/thumb2\libcr_c.a(__fillbuf.o)
 .comment       0x00000000       0x2b c:/code_red/redsuitenxp_4.0.6_249/redsuite/tools/bin/../lib/gcc/arm-none-eabi/4.5.1/../../../../arm-none-eabi/lib/thumb2\libcr_c.a(_deferredlazyseek.o)
 .comment       0x00000000       0x2b c:/code_red/redsuitenxp_4.0.6_249/redsuite/tools/bin/../lib/gcc/arm-none-eabi/4.5.1/../../../../arm-none-eabi/lib/thumb2\libcr_c.a(_do_fflush.o)
 .comment       0x00000000       0x2b c:/code_red/redsuitenxp_4.0.6_249/redsuite/tools/bin/../lib/gcc/arm-none-eabi/4.5.1/../../../../arm-none-eabi/lib/thumb2\libcr_c.a(_fdopen.o)
 .comment       0x00000000       0x2b c:/code_red/redsuitenxp_4.0.6_249/redsuite/tools/bin/../lib/gcc/arm-none-eabi/4.5.1/../../../../arm-none-eabi/lib/thumb2\libcr_c.a(_fflush.o)
 .comment       0x00000000       0x2b c:/code_red/redsuitenxp_4.0.6_249/redsuite/tools/bin/../lib/gcc/arm-none-eabi/4.5.1/../../../../arm-none-eabi/lib/thumb2\libcr_c.a(_writebuf.o)
 .comment       0x00000000       0x2b c:/code_red/redsuitenxp_4.0.6_249/redsuite/tools/bin/../lib/gcc/arm-none-eabi/4.5.1/../../../../arm-none-eabi/lib/thumb2\libcr_c.a(alloc.o)
 .comment       0x00000000       0x2b c:/code_red/redsuitenxp_4.0.6_249/redsuite/tools/bin/../lib/gcc/arm-none-eabi/4.5.1/../../../../arm-none-eabi/lib/thumb2\libcr_c.a(fclose.o)
 .comment       0x00000000       0x2b c:/code_red/redsuitenxp_4.0.6_249/redsuite/tools/bin/../lib/gcc/arm-none-eabi/4.5.1/../../../../arm-none-eabi/lib/thumb2\libcr_c.a(fseek.o)
 .comment       0x00000000       0x2b c:/code_red/redsuitenxp_4.0.6_249/redsuite/tools/bin/../lib/gcc/arm-none-eabi/4.5.1/../../../../arm-none-eabi/lib/thumb2\libcr_c.a(ftell.o)
 .comment       0x00000000       0x2b c:/code_red/redsuitenxp_4.0.6_249/redsuite/tools/bin/../lib/gcc/arm-none-eabi/4.5.1/../../../../arm-none-eabi/lib/thumb2\libcr_c.a(raise.o)
 .comment       0x00000000       0x2b c:/code_red/redsuitenxp_4.0.6_249/redsuite/tools/bin/../lib/gcc/arm-none-eabi/4.5.1/../../../../arm-none-eabi/lib/thumb2\libcr_c.a(remove.o)
 .comment       0x00000000       0x2b c:/code_red/redsuitenxp_4.0.6_249/redsuite/tools/bin/../lib/gcc/arm-none-eabi/4.5.1/../../../../arm-none-eabi/lib/thumb2\libcr_c.a(__init_alloc.o)
 .comment       0x00000000       0x2b c:/code_red/redsuitenxp_4.0.6_249/redsuite/tools/bin/../lib/gcc/arm-none-eabi/4.5.1/../../../../arm-none-eabi/lib/thumb2\libcr_c.a(errno.o)
 .comment       0x00000055       0x2b c:/code_red/redsuitenxp_4.0.6_249/redsuite/tools/bin/../lib/gcc/arm-none-eabi/4.5.1/../../../../arm-none-eabi/lib/thumb2\libcr_nohost.a(__sys_appexit.o)
 .comment       0x00000080       0x2b c:/code_red/redsuitenxp_4.0.6_249/redsuite/tools/bin/../lib/gcc/arm-none-eabi/4.5.1/../../../../arm-none-eabi/lib/thumb2\libcr_nohost.a(__sys_close.o)
 .comment       0x000000ab       0x2b c:/code_red/redsuitenxp_4.0.6_249/redsuite/tools/bin/../lib/gcc/arm-none-eabi/4.5.1/../../../../arm-none-eabi/lib/thumb2\libcr_nohost.a(__sys_flen.o)
 .comment       0x000000d6       0x2b c:/code_red/redsuitenxp_4.0.6_249/redsuite/tools/bin/../lib/gcc/arm-none-eabi/4.5.1/../../../../arm-none-eabi/lib/thumb2\libcr_nohost.a(__sys_istty.o)
 .comment       0x00000101       0x2b c:/code_red/redsuitenxp_4.0.6_249/redsuite/tools/bin/../lib/gcc/arm-none-eabi/4.5.1/../../../../arm-none-eabi/lib/thumb2\libcr_nohost.a(__sys_read.o)
 .comment       0x0000012c       0x2b c:/code_red/redsuitenxp_4.0.6_249/redsuite/tools/bin/../lib/gcc/arm-none-eabi/4.5.1/../../../../arm-none-eabi/lib/thumb2\libcr_nohost.a(__sys_readc.o)
 .comment       0x00000157       0x2b c:/code_red/redsuitenxp_4.0.6_249/redsuite/tools/bin/../lib/gcc/arm-none-eabi/4.5.1/../../../../arm-none-eabi/lib/thumb2\libcr_nohost.a(__sys_remove.o)
 .comment       0x00000182       0x2b c:/code_red/redsuitenxp_4.0.6_249/redsuite/tools/bin/../lib/gcc/arm-none-eabi/4.5.1/../../../../arm-none-eabi/lib/thumb2\libcr_nohost.a(__sys_rename.o)
 .comment       0x000001ad       0x2b c:/code_red/redsuitenxp_4.0.6_249/redsuite/tools/bin/../lib/gcc/arm-none-eabi/4.5.1/../../../../arm-none-eabi/lib/thumb2\libcr_nohost.a(__sys_seek.o)
 .comment       0x000001d8       0x2b c:/code_red/redsuitenxp_4.0.6_249/redsuite/tools/bin/../lib/gcc/arm-none-eabi/4.5.1/../../../../arm-none-eabi/lib/thumb2\libcr_nohost.a(__sys_tmpnam.o)
 .comment       0x00000203       0x2b c:/code_red/redsuitenxp_4.0.6_249/redsuite/tools/bin/../lib/gcc/arm-none-eabi/4.5.1/../../../../arm-none-eabi/lib/thumb2\libcr_nohost.a(__sys_write.o)
 .comment       0x0000022e       0x2b c:/code_red/redsuitenxp_4.0.6_249/redsuite/tools/bin/../lib/gcc/arm-none-eabi/4.5.1/../../../../arm-none-eabi/lib/thumb2\libcr_nohost.a(_cr_sbrk.o)
 .comment       0x00000259       0x2b c:/code_red/redsuitenxp_4.0.6_249/redsuite/tools/bin/../lib/gcc/arm-none-eabi/4.5.1/../../../../arm-none-eabi/lib/thumb2\libcr_nohost.a(_cr_check_heap.o)

.ARM.attributes
                0x00000000       0x2f
 .ARM.attributes
                0x00000000       0x31 ./Source/cr_startup_lpc176x.o
 .ARM.attributes
                0x00000031       0x31 ./Source/main.o
 .ARM.attributes
                0x00000062       0x31 ./Source/printf-stdarg.o
 .ARM.attributes
                0x00000093       0x31 ./Source/lwIP/netif/etharp.o
 .ARM.attributes
                0x000000c4       0x31 ./Source/lwIP/netif/ethernetif.o
 .ARM.attributes
                0x000000f5       0x31 ./Source/lwIP/netif/sys_arch.o
 .ARM.attributes
                0x00000126       0x31 ./Source/lwIP/lwIP_Apps/lwIP_Apps.o
 .ARM.attributes
                0x00000157       0x31 ./Source/lwIP/lwIP_Apps/apps/httpserver_raw/fs.o
 .ARM.attributes
                0x00000188       0x31 ./Source/lwIP/lwIP_Apps/apps/httpserver_raw/httpd.o
 .ARM.attributes
                0x000001b9       0x31 ./Source/lwIP/lwIP_Apps/apps/BasicSocketCommandServer/BasicSocketCommandServer.o
 .ARM.attributes
                0x000001ea       0x31 ./Source/lwIP/core/def.o
 .ARM.attributes
                0x0000021b       0x31 ./Source/lwIP/core/dhcp.o
 .ARM.attributes
                0x0000024c       0x31 ./Source/lwIP/core/dns.o
 .ARM.attributes
                0x0000027d       0x31 ./Source/lwIP/core/init.o
 .ARM.attributes
                0x000002ae       0x31 ./Source/lwIP/core/lwip_timers.o
 .ARM.attributes
                0x000002df       0x31 ./Source/lwIP/core/mem.o
 .ARM.attributes
                0x00000310       0x31 ./Source/lwIP/core/memp.o
 .ARM.attributes
                0x00000341       0x31 ./Source/lwIP/core/netif.o
 .ARM.attributes
                0x00000372       0x31 ./Source/lwIP/core/pbuf.o
 .ARM.attributes
                0x000003a3       0x31 ./Source/lwIP/core/raw.o
 .ARM.attributes
                0x000003d4       0x31 ./Source/lwIP/core/stats.o
 .ARM.attributes
                0x00000405       0x31 ./Source/lwIP/core/sys.o
 .ARM.attributes
                0x00000436       0x31 ./Source/lwIP/core/tcp.o
 .ARM.attributes
                0x00000467       0x31 ./Source/lwIP/core/tcp_in.o
 .ARM.attributes
                0x00000498       0x31 ./Source/lwIP/core/tcp_out.o
 .ARM.attributes
                0x000004c9       0x31 ./Source/lwIP/core/udp.o
 .ARM.attributes
                0x000004fa       0x31 ./Source/lwIP/core/ipv4/autoip.o
 .ARM.attributes
                0x0000052b       0x31 ./Source/lwIP/core/ipv4/icmp.o
 .ARM.attributes
                0x0000055c       0x31 ./Source/lwIP/core/ipv4/igmp.o
 .ARM.attributes
                0x0000058d       0x31 ./Source/lwIP/core/ipv4/inet.o
 .ARM.attributes
                0x000005be       0x31 ./Source/lwIP/core/ipv4/inet_chksum.o
 .ARM.attributes
                0x000005ef       0x31 ./Source/lwIP/core/ipv4/ip.o
 .ARM.attributes
                0x00000620       0x31 ./Source/lwIP/core/ipv4/ip_addr.o
 .ARM.attributes
                0x00000651       0x31 ./Source/lwIP/core/ipv4/ip_frag.o
 .ARM.attributes
                0x00000682       0x31 ./Source/lwIP/api/api_lib.o
 .ARM.attributes
                0x000006b3       0x31 ./Source/lwIP/api/api_msg.o
 .ARM.attributes
                0x000006e4       0x31 ./Source/lwIP/api/err.o
 .ARM.attributes
                0x00000715       0x31 ./Source/lwIP/api/netbuf.o
 .ARM.attributes
                0x00000746       0x31 ./Source/lwIP/api/netdb.o
 .ARM.attributes
                0x00000777       0x31 ./Source/lwIP/api/netifapi.o
 .ARM.attributes
                0x000007a8       0x31 ./Source/lwIP/api/sockets.o
 .ARM.attributes
                0x000007d9       0x31 ./Source/lwIP/api/tcpip.o
 .ARM.attributes
                0x0000080a       0x31 ./Source/MemMang/heap_2.o
 .ARM.attributes
                0x0000083b       0x31 ./Source/FreeRTOS-Products/FreeRTOS-Plus-IO/Device/LPC17xx/FreeRTOS_lpc17xx_DriverInterface.o
 .ARM.attributes
                0x0000086c       0x31 ./Source/FreeRTOS-Products/FreeRTOS-Plus-IO/Device/LPC17xx/FreeRTOS_lpc17xx_i2c.o
 .ARM.attributes
                0x0000089d       0x31 ./Source/FreeRTOS-Products/FreeRTOS-Plus-IO/Device/LPC17xx/FreeRTOS_lpc17xx_ssp.o
 .ARM.attributes
                0x000008ce       0x31 ./Source/FreeRTOS-Products/FreeRTOS-Plus-IO/Device/LPC17xx/FreeRTOS_lpc17xx_uart.o
 .ARM.attributes
                0x000008ff       0x31 ./Source/FreeRTOS-Products/FreeRTOS-Plus-IO/Common/FreeRTOS_DriverInterface.o
 .ARM.attributes
                0x00000930       0x31 ./Source/FreeRTOS-Products/FreeRTOS-Plus-IO/Common/FreeRTOS_IOUtils.o
 .ARM.attributes
                0x00000961       0x31 ./Source/FreeRTOS-Products/FreeRTOS-Plus-IO/Common/IOUtils_CharQueueTxAndRx.o
 .ARM.attributes
                0x00000992       0x31 ./Source/FreeRTOS-Products/FreeRTOS-Plus-IO/Common/IOUtils_CircularBufferRx.o
 .ARM.attributes
                0x000009c3       0x31 ./Source/FreeRTOS-Products/FreeRTOS-Plus-IO/Common/IOUtils_ZeroCopyTx.o
 .ARM.attributes
                0x000009f4       0x31 ./Source/FreeRTOS-Products/FreeRTOS-Plus-CLI/FreeRTOS_CLI.o
 .ARM.attributes
                0x00000a25       0x31 ./Source/FreeRTOS-Products/FreeRTOS/croutine.o
 .ARM.attributes
                0x00000a56       0x31 ./Source/FreeRTOS-Products/FreeRTOS/list.o
 .ARM.attributes
                0x00000a87       0x31 ./Source/FreeRTOS-Products/FreeRTOS/queue.o
 .ARM.attributes
                0x00000ab8       0x31 ./Source/FreeRTOS-Products/FreeRTOS/tasks.o
 .ARM.attributes
                0x00000ae9       0x31 ./Source/FreeRTOS-Products/FreeRTOS/timers.o
 .ARM.attributes
                0x00000b1a       0x31 ./Source/FreeRTOS-Products/FreeRTOS/portable/GCC/ARM_CM3/port.o
 .ARM.attributes
                0x00000b4b       0x31 ./Source/FatFS/ff.o
 .ARM.attributes
                0x00000b7c       0x31 ./Source/FatFS/mmc.o
 .ARM.attributes
                0x00000bad       0x31 ./Source/FatFS/syscall.o
 .ARM.attributes
                0x00000bde       0x31 ./Source/Examples/SSP/SPI-interface-to-SD-card.o
 .ARM.attributes
                0x00000c0f       0x31 ./Source/Examples/GPIO/GPIO-output-and-software-timers.o
 .ARM.attributes
                0x00000c40       0x31 C:\Users\m.paffi.ATESISTEMI\Documents\CCTA-OS\lpc17xx.cmsis.driver.library\Debug\liblpc17xx.cmsis.driver.library.a(lpc17xx_emac.o)
 .ARM.attributes
                0x00000c71       0x31 C:\Users\m.paffi.ATESISTEMI\Documents\CCTA-OS\lpc17xx.cmsis.driver.library\Debug\liblpc17xx.cmsis.driver.library.a(lpc17xx_gpio.o)
 .ARM.attributes
                0x00000ca2       0x31 C:\Users\m.paffi.ATESISTEMI\Documents\CCTA-OS\lpc17xx.cmsis.driver.library\Debug\liblpc17xx.cmsis.driver.library.a(lpc17xx_i2c.o)
 .ARM.attributes
                0x00000cd3       0x31 C:\Users\m.paffi.ATESISTEMI\Documents\CCTA-OS\lpc17xx.cmsis.driver.library\Debug\liblpc17xx.cmsis.driver.library.a(lpc17xx_libcfg_default.o)
 .ARM.attributes
                0x00000d04       0x31 C:\Users\m.paffi.ATESISTEMI\Documents\CCTA-OS\lpc17xx.cmsis.driver.library\Debug\liblpc17xx.cmsis.driver.library.a(lpc17xx_pinsel.o)
 .ARM.attributes
                0x00000d35       0x31 C:\Users\m.paffi.ATESISTEMI\Documents\CCTA-OS\lpc17xx.cmsis.driver.library\Debug\liblpc17xx.cmsis.driver.library.a(lpc17xx_ssp.o)
 .ARM.attributes
                0x00000d66       0x31 C:\Users\m.paffi.ATESISTEMI\Documents\CCTA-OS\lpc17xx.cmsis.driver.library\Debug\liblpc17xx.cmsis.driver.library.a(lpc17xx_uart.o)
 .ARM.attributes
                0x00000d97       0x31 C:\Users\m.paffi.ATESISTEMI\Documents\CCTA-OS\lpc17xx.cmsis.driver.library\Debug\liblpc17xx.cmsis.driver.library.a(lpc17xx_clkpwr.o)
 .ARM.attributes
                0x00000dc8       0x31 C:\Users\m.paffi.ATESISTEMI\Documents\CCTA-OS\CMSISv2p00_LPC17xx\Debug\libCMSISv2p00_LPC17xx.a(system_LPC17xx.o)
 .ARM.attributes
                0x00000df9       0x31 c:/code_red/redsuitenxp_4.0.6_249/redsuite/tools/bin/../lib/gcc/arm-none-eabi/4.5.1/../../../../arm-none-eabi/lib/thumb2\libcr_nohost.a(_cr__main.o)
 .ARM.attributes
                0x00000e2a       0x31 c:/code_red/redsuitenxp_4.0.6_249/redsuite/tools/bin/../lib/gcc/arm-none-eabi/4.5.1/../../../../arm-none-eabi/lib/thumb2\libcr_c.a(fflush.o)
 .ARM.attributes
                0x00000e5b       0x31 c:/code_red/redsuitenxp_4.0.6_249/redsuite/tools/bin/../lib/gcc/arm-none-eabi/4.5.1/../../../../arm-none-eabi/lib/thumb2\libcr_c.a(initio.o)
 .ARM.attributes
                0x00000e8c       0x31 c:/code_red/redsuitenxp_4.0.6_249/redsuite/tools/bin/../lib/gcc/arm-none-eabi/4.5.1/../../../../arm-none-eabi/lib/thumb2\libcr_c.a(memcmp.o)
 .ARM.attributes
                0x00000ebd       0x31 c:/code_red/redsuitenxp_4.0.6_249/redsuite/tools/bin/../lib/gcc/arm-none-eabi/4.5.1/../../../../arm-none-eabi/lib/thumb2\libcr_c.a(setvbuf.o)
 .ARM.attributes
                0x00000eee       0x31 c:/code_red/redsuitenxp_4.0.6_249/redsuite/tools/bin/../lib/gcc/arm-none-eabi/4.5.1/../../../../arm-none-eabi/lib/thumb2\libcr_c.a(stdio.o)
 .ARM.attributes
                0x00000f1f       0x31 c:/code_red/redsuitenxp_4.0.6_249/redsuite/tools/bin/../lib/gcc/arm-none-eabi/4.5.1/../../../../arm-none-eabi/lib/thumb2\libcr_c.a(stdlib.o)
 .ARM.attributes
                0x00000f50       0x31 c:/code_red/redsuitenxp_4.0.6_249/redsuite/tools/bin/../lib/gcc/arm-none-eabi/4.5.1/../../../../arm-none-eabi/lib/thumb2\libcr_c.a(strcat.o)
 .ARM.attributes
                0x00000f81       0x31 c:/code_red/redsuitenxp_4.0.6_249/redsuite/tools/bin/../lib/gcc/arm-none-eabi/4.5.1/../../../../arm-none-eabi/lib/thumb2\libcr_c.a(strchr.o)
 .ARM.attributes
                0x00000fb2       0x31 c:/code_red/redsuitenxp_4.0.6_249/redsuite/tools/bin/../lib/gcc/arm-none-eabi/4.5.1/../../../../arm-none-eabi/lib/thumb2\libcr_c.a(strcmp.o)
 .ARM.attributes
                0x00000fe3       0x31 c:/code_red/redsuitenxp_4.0.6_249/redsuite/tools/bin/../lib/gcc/arm-none-eabi/4.5.1/../../../../arm-none-eabi/lib/thumb2\libcr_c.a(strcpy.o)
 .ARM.attributes
                0x00001014       0x31 c:/code_red/redsuitenxp_4.0.6_249/redsuite/tools/bin/../lib/gcc/arm-none-eabi/4.5.1/../../../../arm-none-eabi/lib/thumb2\libcr_c.a(strlen.o)
 .ARM.attributes
                0x00001045       0x31 c:/code_red/redsuitenxp_4.0.6_249/redsuite/tools/bin/../lib/gcc/arm-none-eabi/4.5.1/../../../../arm-none-eabi/lib/thumb2\libcr_c.a(strncmp.o)
 .ARM.attributes
                0x00001076       0x31 c:/code_red/redsuitenxp_4.0.6_249/redsuite/tools/bin/../lib/gcc/arm-none-eabi/4.5.1/../../../../arm-none-eabi/lib/thumb2\libcr_c.a(strncpy.o)
 .ARM.attributes
                0x000010a7       0x31 c:/code_red/redsuitenxp_4.0.6_249/redsuite/tools/bin/../lib/gcc/arm-none-eabi/4.5.1/../../../../arm-none-eabi/lib/thumb2\libcr_c.a(strstr.o)
 .ARM.attributes
                0x000010d8       0x31 c:/code_red/redsuitenxp_4.0.6_249/redsuite/tools/bin/../lib/gcc/arm-none-eabi/4.5.1/../../../../arm-none-eabi/lib/thumb2\libcr_c.a(memcpy.o)
 .ARM.attributes
                0x00001109       0x31 c:/code_red/redsuitenxp_4.0.6_249/redsuite/tools/bin/../lib/gcc/arm-none-eabi/4.5.1/../../../../arm-none-eabi/lib/thumb2\libcr_c.a(memset.o)
 .ARM.attributes
                0x0000113a       0x31 c:/code_red/redsuitenxp_4.0.6_249/redsuite/tools/bin/../lib/gcc/arm-none-eabi/4.5.1/../../../../arm-none-eabi/lib/thumb2\libcr_c.a(__fillbuf.o)
 .ARM.attributes
                0x0000116b       0x31 c:/code_red/redsuitenxp_4.0.6_249/redsuite/tools/bin/../lib/gcc/arm-none-eabi/4.5.1/../../../../arm-none-eabi/lib/thumb2\libcr_c.a(_deferredlazyseek.o)
 .ARM.attributes
                0x0000119c       0x31 c:/code_red/redsuitenxp_4.0.6_249/redsuite/tools/bin/../lib/gcc/arm-none-eabi/4.5.1/../../../../arm-none-eabi/lib/thumb2\libcr_c.a(_do_fflush.o)
 .ARM.attributes
                0x000011cd       0x31 c:/code_red/redsuitenxp_4.0.6_249/redsuite/tools/bin/../lib/gcc/arm-none-eabi/4.5.1/../../../../arm-none-eabi/lib/thumb2\libcr_c.a(_fdopen.o)
 .ARM.attributes
                0x000011fe       0x31 c:/code_red/redsuitenxp_4.0.6_249/redsuite/tools/bin/../lib/gcc/arm-none-eabi/4.5.1/../../../../arm-none-eabi/lib/thumb2\libcr_c.a(_fflush.o)
 .ARM.attributes
                0x0000122f       0x31 c:/code_red/redsuitenxp_4.0.6_249/redsuite/tools/bin/../lib/gcc/arm-none-eabi/4.5.1/../../../../arm-none-eabi/lib/thumb2\libcr_c.a(_writebuf.o)
 .ARM.attributes
                0x00001260       0x31 c:/code_red/redsuitenxp_4.0.6_249/redsuite/tools/bin/../lib/gcc/arm-none-eabi/4.5.1/../../../../arm-none-eabi/lib/thumb2\libcr_c.a(alloc.o)
 .ARM.attributes
                0x00001291       0x31 c:/code_red/redsuitenxp_4.0.6_249/redsuite/tools/bin/../lib/gcc/arm-none-eabi/4.5.1/../../../../arm-none-eabi/lib/thumb2\libcr_c.a(fclose.o)
 .ARM.attributes
                0x000012c2       0x31 c:/code_red/redsuitenxp_4.0.6_249/redsuite/tools/bin/../lib/gcc/arm-none-eabi/4.5.1/../../../../arm-none-eabi/lib/thumb2\libcr_c.a(fseek.o)
 .ARM.attributes
                0x000012f3       0x31 c:/code_red/redsuitenxp_4.0.6_249/redsuite/tools/bin/../lib/gcc/arm-none-eabi/4.5.1/../../../../arm-none-eabi/lib/thumb2\libcr_c.a(ftell.o)
 .ARM.attributes
                0x00001324       0x31 c:/code_red/redsuitenxp_4.0.6_249/redsuite/tools/bin/../lib/gcc/arm-none-eabi/4.5.1/../../../../arm-none-eabi/lib/thumb2\libcr_c.a(raise.o)
 .ARM.attributes
                0x00001355       0x31 c:/code_red/redsuitenxp_4.0.6_249/redsuite/tools/bin/../lib/gcc/arm-none-eabi/4.5.1/../../../../arm-none-eabi/lib/thumb2\libcr_c.a(remove.o)
 .ARM.attributes
                0x00001386       0x31 c:/code_red/redsuitenxp_4.0.6_249/redsuite/tools/bin/../lib/gcc/arm-none-eabi/4.5.1/../../../../arm-none-eabi/lib/thumb2\libcr_c.a(__init_alloc.o)
 .ARM.attributes
                0x000013b7       0x31 c:/code_red/redsuitenxp_4.0.6_249/redsuite/tools/bin/../lib/gcc/arm-none-eabi/4.5.1/../../../../arm-none-eabi/lib/thumb2\libcr_c.a(errno.o)
 .ARM.attributes
                0x000013e8       0x21 c:/code_red/redsuitenxp_4.0.6_249/redsuite/tools/bin/../lib/gcc/arm-none-eabi/4.5.1/thumb2\libcr_eabihelpers.a(division.o)
 .ARM.attributes
                0x00001409       0x21 c:/code_red/redsuitenxp_4.0.6_249/redsuite/tools/bin/../lib/gcc/arm-none-eabi/4.5.1/thumb2\libcr_eabihelpers.a(memcpy.o)
 .ARM.attributes
                0x0000142a       0x31 c:/code_red/redsuitenxp_4.0.6_249/redsuite/tools/bin/../lib/gcc/arm-none-eabi/4.5.1/../../../../arm-none-eabi/lib/thumb2\libcr_nohost.a(__sys_appexit.o)
 .ARM.attributes
                0x0000145b       0x31 c:/code_red/redsuitenxp_4.0.6_249/redsuite/tools/bin/../lib/gcc/arm-none-eabi/4.5.1/../../../../arm-none-eabi/lib/thumb2\libcr_nohost.a(__sys_close.o)
 .ARM.attributes
                0x0000148c       0x31 c:/code_red/redsuitenxp_4.0.6_249/redsuite/tools/bin/../lib/gcc/arm-none-eabi/4.5.1/../../../../arm-none-eabi/lib/thumb2\libcr_nohost.a(__sys_flen.o)
 .ARM.attributes
                0x000014bd       0x31 c:/code_red/redsuitenxp_4.0.6_249/redsuite/tools/bin/../lib/gcc/arm-none-eabi/4.5.1/../../../../arm-none-eabi/lib/thumb2\libcr_nohost.a(__sys_istty.o)
 .ARM.attributes
                0x000014ee       0x31 c:/code_red/redsuitenxp_4.0.6_249/redsuite/tools/bin/../lib/gcc/arm-none-eabi/4.5.1/../../../../arm-none-eabi/lib/thumb2\libcr_nohost.a(__sys_read.o)
 .ARM.attributes
                0x0000151f       0x31 c:/code_red/redsuitenxp_4.0.6_249/redsuite/tools/bin/../lib/gcc/arm-none-eabi/4.5.1/../../../../arm-none-eabi/lib/thumb2\libcr_nohost.a(__sys_readc.o)
 .ARM.attributes
                0x00001550       0x31 c:/code_red/redsuitenxp_4.0.6_249/redsuite/tools/bin/../lib/gcc/arm-none-eabi/4.5.1/../../../../arm-none-eabi/lib/thumb2\libcr_nohost.a(__sys_remove.o)
 .ARM.attributes
                0x00001581       0x31 c:/code_red/redsuitenxp_4.0.6_249/redsuite/tools/bin/../lib/gcc/arm-none-eabi/4.5.1/../../../../arm-none-eabi/lib/thumb2\libcr_nohost.a(__sys_rename.o)
 .ARM.attributes
                0x000015b2       0x31 c:/code_red/redsuitenxp_4.0.6_249/redsuite/tools/bin/../lib/gcc/arm-none-eabi/4.5.1/../../../../arm-none-eabi/lib/thumb2\libcr_nohost.a(__sys_seek.o)
 .ARM.attributes
                0x000015e3       0x31 c:/code_red/redsuitenxp_4.0.6_249/redsuite/tools/bin/../lib/gcc/arm-none-eabi/4.5.1/../../../../arm-none-eabi/lib/thumb2\libcr_nohost.a(__sys_tmpnam.o)
 .ARM.attributes
                0x00001614       0x31 c:/code_red/redsuitenxp_4.0.6_249/redsuite/tools/bin/../lib/gcc/arm-none-eabi/4.5.1/../../../../arm-none-eabi/lib/thumb2\libcr_nohost.a(__sys_write.o)
 .ARM.attributes
                0x00001645       0x31 c:/code_red/redsuitenxp_4.0.6_249/redsuite/tools/bin/../lib/gcc/arm-none-eabi/4.5.1/../../../../arm-none-eabi/lib/thumb2\libcr_nohost.a(_cr_sbrk.o)
 .ARM.attributes
                0x00001676       0x31 c:/code_red/redsuitenxp_4.0.6_249/redsuite/tools/bin/../lib/gcc/arm-none-eabi/4.5.1/../../../../arm-none-eabi/lib/thumb2\libcr_nohost.a(_cr_check_heap.o)

.debug_frame    0x00000000     0x4830
 .debug_frame   0x00000000      0x104 ./Source/cr_startup_lpc176x.o
 .debug_frame   0x00000104       0xc4 ./Source/main.o
 .debug_frame   0x000001c8      0x108 ./Source/printf-stdarg.o
 .debug_frame   0x000002d0      0x148 ./Source/lwIP/netif/etharp.o
 .debug_frame   0x00000418       0x74 ./Source/lwIP/netif/ethernetif.o
 .debug_frame   0x0000048c      0x1e8 ./Source/lwIP/netif/sys_arch.o
 .debug_frame   0x00000674       0x48 ./Source/lwIP/lwIP_Apps/lwIP_Apps.o
 .debug_frame   0x000006bc       0x80 ./Source/lwIP/lwIP_Apps/apps/httpserver_raw/fs.o
 .debug_frame   0x0000073c      0x184 ./Source/lwIP/lwIP_Apps/apps/httpserver_raw/httpd.o
 .debug_frame   0x000008c0       0x34 ./Source/lwIP/lwIP_Apps/apps/BasicSocketCommandServer/BasicSocketCommandServer.o
 .debug_frame   0x000008f4       0x50 ./Source/lwIP/core/def.o
 .debug_frame   0x00000944       0x28 ./Source/lwIP/core/init.o
 .debug_frame   0x0000096c       0xbc ./Source/lwIP/core/lwip_timers.o
 .debug_frame   0x00000a28       0xa4 ./Source/lwIP/core/mem.o
 .debug_frame   0x00000acc       0x64 ./Source/lwIP/core/memp.o
 .debug_frame   0x00000b30      0x11c ./Source/lwIP/core/netif.o
 .debug_frame   0x00000c4c      0x1f8 ./Source/lwIP/core/pbuf.o
 .debug_frame   0x00000e44       0x2c ./Source/lwIP/core/sys.o
 .debug_frame   0x00000e70      0x2fc ./Source/lwIP/core/tcp.o
 .debug_frame   0x0000116c       0x80 ./Source/lwIP/core/tcp_in.o
 .debug_frame   0x000011ec      0x1f0 ./Source/lwIP/core/tcp_out.o
 .debug_frame   0x000013dc       0x64 ./Source/lwIP/core/ipv4/icmp.o
 .debug_frame   0x00001440       0xb8 ./Source/lwIP/core/ipv4/inet_chksum.o
 .debug_frame   0x000014f8       0x98 ./Source/lwIP/core/ipv4/ip.o
 .debug_frame   0x00001590       0xac ./Source/lwIP/core/ipv4/ip_addr.o
 .debug_frame   0x0000163c      0x220 ./Source/lwIP/api/api_lib.o
 .debug_frame   0x0000185c      0x284 ./Source/lwIP/api/api_msg.o
 .debug_frame   0x00001ae0       0xf8 ./Source/lwIP/api/netbuf.o
 .debug_frame   0x00001bd8      0x380 ./Source/lwIP/api/sockets.o
 .debug_frame   0x00001f58      0x118 ./Source/lwIP/api/tcpip.o
 .debug_frame   0x00002070       0x68 ./Source/MemMang/heap_2.o
 .debug_frame   0x000020d8       0x20 ./Source/FreeRTOS-Products/FreeRTOS-Plus-IO/Device/LPC17xx/FreeRTOS_lpc17xx_DriverInterface.o
 .debug_frame   0x000020f8       0xb0 ./Source/FreeRTOS-Products/FreeRTOS-Plus-IO/Device/LPC17xx/FreeRTOS_lpc17xx_i2c.o
 .debug_frame   0x000021a8       0xdc ./Source/FreeRTOS-Products/FreeRTOS-Plus-IO/Device/LPC17xx/FreeRTOS_lpc17xx_ssp.o
 .debug_frame   0x00002284       0xb8 ./Source/FreeRTOS-Products/FreeRTOS-Plus-IO/Device/LPC17xx/FreeRTOS_lpc17xx_uart.o
 .debug_frame   0x0000233c       0x48 ./Source/FreeRTOS-Products/FreeRTOS-Plus-IO/Common/FreeRTOS_DriverInterface.o
 .debug_frame   0x00002384       0x2c ./Source/FreeRTOS-Products/FreeRTOS-Plus-IO/Common/FreeRTOS_IOUtils.o
 .debug_frame   0x000023b0       0xc4 ./Source/FreeRTOS-Products/FreeRTOS-Plus-IO/Common/IOUtils_CharQueueTxAndRx.o
 .debug_frame   0x00002474       0x74 ./Source/FreeRTOS-Products/FreeRTOS-Plus-IO/Common/IOUtils_CircularBufferRx.o
 .debug_frame   0x000024e8       0x58 ./Source/FreeRTOS-Products/FreeRTOS-Plus-IO/Common/IOUtils_ZeroCopyTx.o
 .debug_frame   0x00002540       0x94 ./Source/FreeRTOS-Products/FreeRTOS-Plus-CLI/FreeRTOS_CLI.o
 .debug_frame   0x000025d4       0x94 ./Source/FreeRTOS-Products/FreeRTOS/croutine.o
 .debug_frame   0x00002668       0x68 ./Source/FreeRTOS-Products/FreeRTOS/list.o
 .debug_frame   0x000026d0      0x24c ./Source/FreeRTOS-Products/FreeRTOS/queue.o
 .debug_frame   0x0000291c      0x3e8 ./Source/FreeRTOS-Products/FreeRTOS/tasks.o
 .debug_frame   0x00002d04      0x120 ./Source/FreeRTOS-Products/FreeRTOS/timers.o
 .debug_frame   0x00002e24       0xc8 ./Source/FreeRTOS-Products/FreeRTOS/portable/GCC/ARM_CM3/port.o
 .debug_frame   0x00002eec      0x474 ./Source/FatFS/ff.o
 .debug_frame   0x00003360      0x1c0 ./Source/FatFS/mmc.o
 .debug_frame   0x00003520       0x60 ./Source/FatFS/syscall.o
 .debug_frame   0x00003580      0x118 ./Source/Examples/SSP/SPI-interface-to-SD-card.o
 .debug_frame   0x00003698       0x48 ./Source/Examples/GPIO/GPIO-output-and-software-timers.o
 .debug_frame   0x000036e0      0x314 C:\Users\m.paffi.ATESISTEMI\Documents\CCTA-OS\lpc17xx.cmsis.driver.library\Debug\liblpc17xx.cmsis.driver.library.a(lpc17xx_emac.o)
 .debug_frame   0x000039f4      0x378 C:\Users\m.paffi.ATESISTEMI\Documents\CCTA-OS\lpc17xx.cmsis.driver.library\Debug\liblpc17xx.cmsis.driver.library.a(lpc17xx_gpio.o)
 .debug_frame   0x00003d6c      0x2d0 C:\Users\m.paffi.ATESISTEMI\Documents\CCTA-OS\lpc17xx.cmsis.driver.library\Debug\liblpc17xx.cmsis.driver.library.a(lpc17xx_i2c.o)
 .debug_frame   0x0000403c       0x2c C:\Users\m.paffi.ATESISTEMI\Documents\CCTA-OS\lpc17xx.cmsis.driver.library\Debug\liblpc17xx.cmsis.driver.library.a(lpc17xx_libcfg_default.o)
 .debug_frame   0x00004068       0xbc C:\Users\m.paffi.ATESISTEMI\Documents\CCTA-OS\lpc17xx.cmsis.driver.library\Debug\liblpc17xx.cmsis.driver.library.a(lpc17xx_pinsel.o)
 .debug_frame   0x00004124      0x24c C:\Users\m.paffi.ATESISTEMI\Documents\CCTA-OS\lpc17xx.cmsis.driver.library\Debug\liblpc17xx.cmsis.driver.library.a(lpc17xx_ssp.o)
 .debug_frame   0x00004370      0x3a0 C:\Users\m.paffi.ATESISTEMI\Documents\CCTA-OS\lpc17xx.cmsis.driver.library\Debug\liblpc17xx.cmsis.driver.library.a(lpc17xx_uart.o)
 .debug_frame   0x00004710       0xe4 C:\Users\m.paffi.ATESISTEMI\Documents\CCTA-OS\lpc17xx.cmsis.driver.library\Debug\liblpc17xx.cmsis.driver.library.a(lpc17xx_clkpwr.o)
 .debug_frame   0x000047f4       0x3c C:\Users\m.paffi.ATESISTEMI\Documents\CCTA-OS\CMSISv2p00_LPC17xx\Debug\libCMSISv2p00_LPC17xx.a(system_LPC17xx.o)
